(dp1
Vlimited
p2
F-0.00017830947277924262
sVsecondly
p3
F-0.00024387565890260902
sVchild
p4
F-6.9050181616285675e-05
sVdesirable
p5
F8.0320242122414203e-05
sVyellow
p6
F-0.00036093436193375449
sVsleek
p7
F5.3637760358725454e-06
sVsleep
p8
F-5.716526813732655e-05
sVasian
p9
F-0.0001088182989985305
sVoldest
p10
F5.6155253461063603e-06
sVpoorly
p11
F-0.0007596909815322456
sVsweetest
p12
F0.00014803397865267127
sVwhatsoever
p13
F2.402093178490057e-05
sVsorry
p14
F-0.00038360039997983587
sVchill
p15
F4.9187515699069868e-05
sVworth
p16
F-5.8648796154684061e-05
sVupdated
p17
F-2.4955894774814728e-05
sVdeli
p18
F-2.5499829085735484e-06
sVdynamic
p19
F1.9406192070652613e-05
sVsmack
p20
F-1.5218785690743249e-06
sVdefinetly
p21
F-3.1269028079359687e-05
sVleisurely
p22
F0.00033752480616248449
sVmessy
p23
F-0.00071956101152836438
sVutmost
p24
F5.7430669481229539e-05
sVvast
p25
F0.00024301032434211834
sVwary
p26
F2.3203921476363646e-05
sVwooden
p27
F-1.5882632424001102e-05
sVsolid
p28
F4.7652570317763105e-05
sVsuite
p29
F3.5404494283826327e-05
sVdelightfully
p30
F0.00054575994410019227
sVstraight
p31
F4.1915873389373581e-05
sVenjoy
p32
F0.00020809308178917782
sVspecially
p33
F-0.0001321613644903921
sVtired
p34
F-5.0288988548266686e-05
sVconsistent
p35
F4.959338443972708e-06
sVdirect
p36
F-1.1814009545699821e-05
sVnail
p37
F-9.475021599054015e-05
sVelegant
p38
F0.00027398851972068572
sVlikely
p39
F-0.00021348915800577608
sVfabulous
p40
F0.00010426459292631036
sV7th
p41
F-9.9919207497375893e-05
sVsterile
p42
F2.733325511037818e-06
sVcolourful
p43
F5.3082343944327051e-05
sVblue
p44
F-0.00020192253667634214
sVbeaten
p45
F9.8939220837341614e-05
sVweren
p46
F-0.0001271232046003926
sVabove
p47
F-4.5791326061133628e-05
sVnew
p48
F-1.0515603931348633e-05
sVreluctant
p49
F-0.00015050442826206631
sVever
p50
F6.0422954282613839e-06
sVextremly
p51
F-9.8246378336874735e-05
sVsimultaneously
p52
F0.00039616575362351459
sVfestive
p53
F0.00064566487154696893
sVnever
p54
F-0.00015944134042806488
sVdisposable
p55
F3.281599779177429e-05
sVhere
p56
F5.4623197991881444e-06
sVactive
p57
F3.9288727569365453e-05
sVquite
p58
F-3.0975045681418047e-05
sVdry
p59
F-0.00010326707850325885
sVluggage
p60
F-0.00011999991772394202
sVsurely
p61
F7.6572398581872217e-05
sVspotty
p62
F-0.00023841513748879033
sVappropriately
p63
F-9.9968571761766543e-05
sVfantastic
p64
F4.9794596331114857e-05
sVsecure
p65
F9.344809601059256e-05
sVhighly
p66
F6.2492044463974885e-05
sVvisible
p67
F-0.00042391227023368485
sVtotal
p68
F-4.1901303757600511e-05
sVwould
p69
F1.6577200638348177e-05
sVnegative
p70
F-0.00017974341699072697
sVoverhead
p71
F-6.6491742977629111e-05
sVcalm
p72
F6.1022377003082852e-05
sVrecommend
p73
F2.0507587128536448e-05
sVth
p74
F-0.00026814111889702082
sVrelax
p75
F-1.4075786070529184e-05
sVsuccessful
p76
F0.00014943488453900421
sVaware
p77
F-0.00010251055438473492
sVwarm
p78
F7.0877072433526278e-05
sVexcellent
p79
F5.2500606336587447e-05
sVyard
p80
F-8.5701554024583465e-05
sVtastefully
p81
F0.00011063950699502694
sVlocked
p82
F-0.00023399724215259263
sVcheapest
p83
F8.3044669944480967e-06
sVtremendously
p84
F-7.1875496712866231e-05
sVroof
p85
F-2.0742690785386601e-06
sVcuddly
p86
F-3.3852746156164416e-05
sVupscale
p87
F-5.3023480623447288e-05
sVelegantly
p88
F7.3362213102997088e-06
sVdecorative
p89
F3.6254224708824758e-06
sVfoodie
p90
F-0.00015717049819881704
sVgive
p91
F-3.287125640354338e-05
sVorganized
p92
F3.2453021520859655e-05
sVwant
p93
F-0.00034098744752057459
sVabsolute
p94
F0.00016662925415637624
sVkeen
p95
F0.00011086589135644993
sVprovide
p96
F-5.2869516123856271e-05
sVtravel
p97
F3.1214516165303848e-05
sVlivable
p98
F-0.00015483569819301011
sVvery
p99
F1.5777175696794659e-05
sVamazing
p100
F6.841666790860851e-05
sVadjacent
p101
F-7.5923746185054539e-05
sVanswer
p102
F-0.00023562549455640884
sVordinary
p103
F-0.00013857872451974391
sVpizza
p104
F3.5373109580948971e-05
sVbadly
p105
F-0.0010216767079370423
sVdoable
p106
F-1.1831809297782383e-05
sVearlier
p107
F-0.00011578724972429332
sVimaginable
p108
F0.00039145711272090585
sVmodest
p109
F0.00012317685619920928
sVchilled
p110
F2.8589767813695111e-05
sVsplendid
p111
F-0.00010256033538820209
sVeffective
p112
F6.8385659242181749e-05
sVappreciate
p113
F4.5620286981022795e-05
sVgreek
p114
F-2.1269799116783619e-05
sVinterior
p115
F9.6747932236967377e-05
sVgreen
p116
F0.00014212384348451853
sVultimate
p117
F-3.0137121774156022e-05
sVworst
p118
F-0.0036330516269396109
sVwine
p119
F-8.1365091535883681e-06
sVwelcomed
p120
F5.9795314092245125e-05
sVover
p121
F-5.9751562584922744e-05
sVsatisfied
p122
F-1.2832868076446109e-06
sVfab
p123
F8.6434526704126365e-05
sVoven
p124
F-5.4406658575550655e-05
sVresponsive
p125
F2.4873532060740291e-05
sVtalkative
p126
F0.0002624780903051869
sVbefore
p127
F-8.4358894271048903e-05
sVlovingly
p128
F0.00026809958215172
sVfit
p129
F-2.872676767612503e-05
sVpersonal
p130
F-2.1914786165233953e-05
sVbetter
p131
F1.6838880812381369e-06
sVcomplex
p132
F-0.00021786765269961455
sVdifferently
p133
F-0.00025304463031348881
sVworkable
p134
F-8.1852478626553933e-05
sVchatty
p135
F1.7377218458118755e-05
sVhidden
p136
F0.00016620686797373538
sVeasier
p137
F7.0108909146211182e-05
sVconfidently
p138
F-0.00014322768369022499
sVpleasurable
p139
F8.4652978499570732e-05
sVeventually
p140
F-0.00050057924591679237
sVcoffee
p141
F4.4293818078672842e-05
sVtourist
p142
F5.4908066968438943e-05
sVamenable
p143
F0.00013381490130912543
sV30th
p144
F0.00023690576484730158
sVrental
p145
F-0.0001042507188752616
sVbread
p146
F0.00015663350248546626
sVlillian
p147
F-5.6236575978167357e-06
sVreasonably
p148
F-2.7291912014205686e-05
sVdingy
p149
F-0.00064891959144067505
sVspotless
p150
F6.4732210415834594e-05
sVreasonable
p151
F1.0619363108471826e-05
sVmeal
p152
F0.0001947850521251708
sVmean
p153
F-0.00025626185871097074
sVfinancial
p154
F-6.7438832331596007e-05
sVjillian
p155
F2.8796851602878541e-06
sVfairly
p156
F-5.9175970246026861e-05
sVspanish
p157
F-7.5218528361454547e-05
sVgod
p158
F3.1948334117653625e-06
sVcrucial
p159
F-8.7045477500943731e-06
sVcontent
p160
F-5.4555522954953534e-05
sVre
p161
F-0.00015675328373477592
sVlaid
p162
F-0.00033361856706784991
sVheavenly
p163
F-8.8360976532158238e-06
sVnewly
p164
F2.6912638834802795e-05
sVforth
p165
F8.6345226446509846e-05
sVcutest
p166
F-2.7742078769330976e-05
sVfree
p167
F0.00016951167843792488
sVstandard
p168
F-4.8412317580311709e-05
sVdelight
p169
F6.9150536177838294e-05
sVenormous
p170
F7.3368478944694485e-05
sVinexpensive
p171
F2.5630020398927688e-05
sVist
p172
F-0.0001154456400682931
sVflawless
p173
F0.0039353119962061561
sVish
p174
F-7.9947621925835957e-05
sVspeedy
p175
F7.3023505061817871e-05
sVisn
p176
F-0.00024612336125069597
sVloud
p177
F-0.00021047657134420241
sVappreciable
p178
F5.6157973581148437e-07
sVindustrial
p179
F0.0001103595971966981
sVprimary
p180
F-6.2266561014882556e-05
sVlovable
p181
F-1.1932615565048607e-05
sVwash
p182
F-0.00011081610403795427
sVdownside
p183
F-1.8913115065477224e-05
sVdelicious
p184
F8.4083104701799437e-05
sVwasn
p185
F-0.00023384676900722811
sVthoughtfully
p186
F0.00011932803401341454
sVimmensely
p187
F7.8196261804411695e-05
sVremotely
p188
F-6.3520078516262788e-05
sVelectronic
p189
F-5.8061100818331336e-05
sVrenovated
p190
F-1.5369561076193869e-06
sVsimilarly
p191
F-0.00025127794893467406
sVtop
p192
F1.4209502434648532e-05
sVapproximately
p193
F-5.9245366388766378e-05
sVplentiful
p194
F0.00024463109806000102
sVneeded
p195
F-3.8129941465491707e-05
sVlisted
p196
F3.0310528519443169e-05
sVairy
p197
F0.00010278561107232478
sVinconvenient
p198
F-0.00032627841100857537
sVinsightful
p199
F6.8824542785175628e-05
sVurban
p200
F0.0001269963343115612
sVhappily
p201
F8.5085805472827111e-05
sVgym
p202
F-5.2761825293028949e-05
sVjapanese
p203
F5.2251720210075495e-05
sVkindest
p204
F0.00014201810936999
sVwestern
p205
F-6.9516651509115161e-05
sVsomewhat
p206
F-0.00014012047104512853
sVshortly
p207
F-0.00017706438735057967
sVpositively
p208
F-1.7186912952170142e-05
sVfrankly
p209
F-0.00020289535224882925
sVtree
p210
F8.4709847484659088e-06
sVsecond
p211
F-8.6856304990777069e-05
sVshower
p212
F-0.00020966119644748104
sVmatter
p213
F-2.7713733036636908e-05
sVstreet
p214
F0.00010044047785324258
sVsilly
p215
F-0.00020220292872390915
sVhistorical
p216
F0.00044418224010632474
sVshampoos
p217
F-0.00013043994944055031
sVsolely
p218
F-0.00031925669131887131
sVmini
p219
F9.5584470631791363e-05
sVmodern
p220
F7.5631081312431866e-05
sVmine
p221
F-6.8116791675951638e-05
sVraw
p222
F-0.00011414651272744786
sVedgy
p223
F9.8197575460224674e-05
sVleafy
p224
F3.9211389296682897e-05
sVrelatively
p225
F-5.5745836441994446e-05
sVquieter
p226
F2.5109848541408457e-05
sVgenuine
p227
F0.00017489890347558858
sVconvenient
p228
F4.1179416437438901e-05
sVresponsible
p229
F-6.436033102466177e-05
sVcommunicative
p230
F3.7640848453377568e-05
sVthorough
p231
F1.1667762035912923e-06
sVsituated
p232
F-3.6415051003923127e-05
sVrealy
p233
F-3.4427962553507197e-05
sVrecommended
p234
F7.5678181416415476e-05
sVdefiantly
p235
F2.2387127238810296e-05
sVsleeper
p236
F8.5069814268652147e-05
sVconducive
p237
F-3.0760097805555386e-05
sVeven
p238
F-6.1749924861389941e-06
sVthough
p239
F-8.6179137224682439e-05
sVregular
p240
F3.2876798486196069e-05
sVplenty
p241
F4.9114253672410827e-05
sVdon
p242
F-0.00014040901078234507
sVmedical
p243
F0.00013969182311125881
sVnighttime
p244
F-9.4367552960873311e-05
sVdog
p245
F-8.2534549514918276e-05
sVorderly
p246
F-2.2571707195726724e-05
sVdefinitely
p247
F3.229273609725829e-05
sVsun
p248
F-0.0003977664781894348
sVentertaining
p249
F3.6631344567281427e-06
sVfitted
p250
F-0.00034260689563847307
sVfussy
p251
F-0.00012732218551801612
sVcooking
p252
F0.000202528376855956
sVoverpriced
p253
F2.425058648400312e-05
sVqueen
p254
F-3.9450465488709735e-05
sVbrief
p255
F3.7590275768289359e-05
sVenjoyed
p256
F2.5132102074541279e-05
sVbusy
p257
F3.9938558459585714e-05
sVquaint
p258
F6.1686184537434452e-05
sVrich
p259
F2.3338538146946627e-05
sVheartily
p260
F7.2085912426392713e-05
sVadequate
p261
F-9.5836832140839656e-05
sVwarmest
p262
F0.0001762105528500501
sVdo
p263
F0.00025252552648491044
sVcolorful
p264
F0.00013184697616405174
sVstop
p265
F2.6985639574691161e-05
sVpreferred
p266
F0.0004482184524502936
sValtogether
p267
F6.1265487011218127e-05
sVnasty
p268
F-0.010134125440141126
sVdu
p269
F3.6750637709140105e-05
sVbotanical
p270
F7.3554145129173091e-05
sVunfortunately
p271
F-0.00022460493018607578
sVnicely
p272
F3.876646486922022e-05
sVofficially
p273
F-1.8218706052644635e-05
sVplush
p274
F0.00028167768518604395
sVtwice
p275
F-0.00020381510697769332
sVbad
p276
F-0.00081312020221693587
sVcozier
p277
F0.00012264265201297677
sVautomatic
p278
F-9.3960113262381924e-05
sVfarther
p279
F-6.5485791558607723e-05
sVfascinating
p280
F0.00010696279214321513
sVfluffy
p281
F7.889842689494782e-05
sVunexpectedly
p282
F0.00018896672925704472
sVextraordinarily
p283
F0.0095705272854586937
sVmiserable
p284
F-0.00095219072699777578
sVbest
p285
F5.7709647974581577e-05
sVimmaculately
p286
F8.6927838173222997e-05
sVlots
p287
F8.2110438928285704e-06
sVaway
p288
F3.5490169335565129e-05
sVcontinually
p289
F-0.00026121358762679319
sVunable
p290
F-0.00030603638643029123
sVhopefully
p291
F-2.769335510484121e-05
sVmum
p292
F5.4353617257062892e-05
sVlazy
p293
F3.3752140665615994e-05
sVsmelled
p294
F-0.000261210451175299
sVweak
p295
F-0.0001213189528618651
sVhowever
p296
F-0.00019779914660648484
sVwi
p297
F-0.0001481514131673454
sVweary
p298
F7.4916110406895173e-05
sVupfront
p299
F-0.00014811053418158014
sVconvertible
p300
F-0.00011675541493825266
sVkitchen
p301
F1.9839406267281153e-05
sVsuggested
p302
F-0.00010943116087279716
sVessentially
p303
F-0.00016336442334356603
sVuns
p304
F-4.2634281448282864e-05
sVill
p305
F-0.00016018284544922596
sVuna
p306
F2.1456977155764933e-05
sVund
p307
F-0.00010695315087634227
sVplanned
p308
F-5.2331388549948954e-05
sVcon
p309
F-0.00027074148461047275
sVpeacefully
p310
F0.00035589023005612539
sVpre
p311
F7.7849114871687757e-05
sVexemplary
p312
F5.1549461750094219e-05
sV2nd
p313
F3.2558866480830387e-05
sVawesomely
p314
F2.8808416999239514e-05
sVtowels
p315
F-5.2882780693507941e-05
sVspeak
p316
F-0.00014615645503871481
sVtiny
p317
F-0.00019344495516694765
sVquickly
p318
F-2.1315122470658826e-05
sVconfident
p319
F6.5057209815286317e-05
sVmuch
p320
F8.9185030700327731e-07
sVbasic
p321
F-5.422396050599432e-05
sVexpected
p322
F-3.1837816409900161e-05
sVflexible
p323
F2.7146659364332713e-05
sVlovely
p324
F6.671863787066561e-05
sVwebsite
p325
F-7.8235630427965825e-05
sVloft
p326
F6.4076557727059117e-05
sVrelaxing
p327
F0.00015104973011706769
sVeastern
p328
F0.00028757045869353651
sVsooooo
p329
F1.582951772970267e-05
sVuncommon
p330
F0.00079023773077926246
sVpersonally
p331
F-2.646713231163962e-05
sVworked
p332
F-0.00015320546839470633
sVsad
p333
F1.9595060764821361e-05
sVgracious
p334
F0.00010242416428960597
sVgritty
p335
F0.00043119101241834802
sVprofessionally
p336
F-0.00022717631815473671
sVair
p337
F3.8672960617962432e-05
sVugly
p338
F-0.00098917482836262242
sVnear
p339
F4.098401773762246e-05
sVneat
p340
F3.061201957102597e-05
sVitinerary
p341
F9.7515159757228053e-05
sVappartement
p342
F5.3285063365868463e-05
sVcant
p343
F-7.6686812319054379e-05
sVim
p344
F0.00011659174009435484
sVil
p345
F-3.2751625873521628e-06
sVexterior
p346
F-1.8486190939572183e-05
sVdoorman
p347
F6.0904550229859883e-05
sVgrown
p348
F1.4220117370430252e-05
sVmemorial
p349
F9.1715941905893612e-05
sVsuggest
p350
F-7.105452305359058e-05
sVmake
p351
F-0.00014563500849308709
sVequiped
p352
F-2.5322278099999747e-05
sVbottled
p353
F8.053408707284256e-05
sVpotentially
p354
F-0.00023750408758399407
sVunfortunate
p355
F-0.00012408436647354126
sVvegetable
p356
F1.1502312643140492e-05
sVfiltered
p357
F-0.00015449482902984993
sVseveral
p358
F-2.8014781824445807e-05
sVeuropean
p359
F9.3416481709762141e-05
sVindependent
p360
F-2.3107407771044382e-05
sVeffortlessly
p361
F0.00024083253516712593
sVfuss
p362
F7.5088720458222483e-05
sVpubs
p363
F0.00018486832823188647
sVjealous
p364
F0.00020074050545982523
sVsuitable
p365
F-0.00017395643889447189
sVkept
p366
F6.7661003241814574e-05
sVcrosstown
p367
F-0.00011444583841173646
sVhumble
p368
F6.0391970740426883e-05
sVhispanic
p369
F-1.8029392488233733e-05
sVcontact
p370
F-6.6181775532150091e-05
sVgreatest
p371
F8.7481402470210287e-05
sVmusical
p372
F0.00031011416814154366
sVleft
p373
F-0.00021849116763640201
sVjust
p374
F-6.2904581161324542e-06
sVgolden
p375
F0.00030159894907135404
sVlaptop
p376
F-0.0001117758116475167
sVquintessential
p377
F0.00011425246002153755
sVhuman
p378
F5.8604981156609758e-05
sVyes
p379
F-0.00025356644377073163
sVyet
p380
F1.2770020039145475e-05
sVprevious
p381
F-0.00032629252585354208
sVspotlessly
p382
F9.0259825975671991e-05
sVgreenwich
p383
F-5.8579736891653555e-06
sVease
p384
F-1.1705466863400272e-05
sVok
p385
F-0.0001761653128591946
sVeasy
p386
F2.9115926282174703e-05
sVbnb
p387
F-0.00021428885178256831
sVeast
p388
F8.6724277357534148e-05
sVtolerable
p389
F-0.00040957129765733353
sVusable
p390
F-0.00033710335882563468
sVpossible
p391
F-6.5382850976120196e-06
sVpossibly
p392
F-9.2233846799197029e-06
sVcultural
p393
F9.0732009174992971e-05
sVdiscreet
p394
F6.4051118001956785e-06
sVdreamy
p395
F0.00029772739216133419
sVunique
p396
F0.00011952451907061935
sVapart
p397
F-0.00023885370996688864
sVcooler
p398
F7.6136439992958657e-05
sVmanual
p399
F-8.7455082386596984e-05
sVunnecessary
p400
F-0.00037194907304933736
sVspecific
p401
F-2.2218610267279076e-05
sVinformative
p402
F6.8721607977980265e-05
sVprivate
p403
F3.4799130224442547e-05
sVsteps
p404
F8.508353742845219e-05
sVsparse
p405
F3.4856187486959002e-06
sVinvaluable
p406
F0.00018860585000654649
sVsebastian
p407
F-9.1805282430005645e-05
sVantique
p408
F2.0334700125577819e-05
sVright
p409
F2.1595989101165825e-05
sVold
p410
F-0.00014196489700528788
sVsuccessfully
p411
F-0.00010761495309639841
sVsomehow
p412
F-0.00033637355120870764
sVelderly
p413
F-3.0106535419422841e-06
sVhassle
p414
F0.00017089107603251329
sVdear
p415
F4.2878598232800474e-05
sVmultiple
p416
F-0.00019357364092119914
sVconfusing
p417
F-0.00036837233322422301
sVbottom
p418
F-0.00021728631016925293
sVphenomenal
p419
F9.2201285875292982e-05
sVopposite
p420
F-4.2967896855408092e-05
sVmicrowave
p421
F-0.00021636287212073579
sVcreative
p422
F0.00027305431232602697
sVuma
p423
F0.0016439941320135305
sVadorable
p424
F7.1053425097594887e-05
sVposh
p425
F6.7279797750744631e-05
sVarchitectural
p426
F1.1398897801366069e-05
sVmemorable
p427
F0.0001745476911477229
sVsuper
p428
F3.6726673486765015e-05
sVtrustworthy
p429
F0.00024810156667840838
sVdinner
p430
F-0.00016860483242376364
sVmisleading
p431
F-0.0016116983484954295
sVplus
p432
F2.3490973700291166e-05
sVlogistical
p433
F0.00013895016345511163
sVshared
p434
F-0.00012542613451493645
sVslightly
p435
F-9.1296414750349599e-05
sVautomatically
p436
F-0.00016156939989042492
sVdefinetely
p437
F4.9558725653952694e-06
sVdelighted
p438
F0.00025115398784731957
sVsoo
p439
F1.0384408231186974e-05
sVbath
p440
F-0.00010364995338991546
sVdown
p441
F-0.0001191388211509081
sVthankful
p442
F2.3396258628092661e-05
sVamazingly
p443
F0.00012025412365053347
sVinitial
p444
F8.6124000742947835e-06
sVsunlight
p445
F-2.5933036969780235e-05
sVuncluttered
p446
F2.7447091797551684e-05
sVstuck
p447
F-0.00043985459755019243
sVaccordingly
p448
F-6.760762949733389e-05
sVquirky
p449
F0.00012106946608234662
sVhappy
p450
F4.683751606529713e-05
sVquestionable
p451
F-0.00074917253570811241
sVsnowy
p452
F-8.4899773347732201e-06
sVgentrified
p453
F-0.00012346720393288847
sVwireless
p454
F0.00016426421919873383
sVhear
p455
F3.8702954433852586e-05
sVdead
p456
F-0.00043434128670060931
sVtrue
p457
F8.3198057705642902e-05
sVabsent
p458
F6.1944470385513067e-06
sVsurprising
p459
F0.00033235817724906535
sVinside
p460
F-0.00017607738764600841
sVattached
p461
F-0.00020485239810883067
sVmaximum
p462
F6.491320256364749e-05
sVtouristic
p463
F3.2880518743754986e-05
sVeconomic
p464
F4.1579650754800161e-05
sVnicest
p465
F6.6192108734027484e-05
sVunusually
p466
F3.2329946533649198e-05
sVbrightly
p467
F6.8475076297758893e-05
sVproud
p468
F-2.9444074619054176e-05
sVinclusive
p469
F0.020083849380436423
sVsticky
p470
F-0.0011037471033184657
sVsometime
p471
F7.2556872252537411e-05
sVpromised
p472
F1.1284267258577921e-05
sVphysical
p473
F-0.00014112151697365564
sVno
p474
F-0.00011611927261831055
sVna
p475
F-6.1690657432156336e-05
sVaccomodating
p476
F3.4631688541511073e-05
sVgenerally
p477
F-9.2512339233584025e-05
sVne
p478
F1.8036810621864977e-05
sVny
p479
F2.7826499084684991e-05
sVinterested
p480
F1.0953869990928638e-05
sVdigital
p481
F6.418895467651402e-05
sVnt
p482
F-7.3591877815568248e-05
sVroomier
p483
F-1.8447978805987205e-05
sVtasteful
p484
F0.00015659824239600155
sVfelt
p485
F-7.6269743730961458e-05
sVpolite
p486
F-3.3238715866228284e-05
sVyounger
p487
F-6.0568494111544086e-05
sVlonger
p488
F-5.0119529339961348e-05
sVdaily
p489
F-1.1559461631489791e-05
sVsafe
p490
F2.2243739039227328e-05
sVserious
p491
F-0.00036393484692648934
sVunavoidable
p492
F-0.00021872078663830597
sVremarkable
p493
F0.0002658604826105555
sVmild
p494
F-0.00013394946202503972
sVmile
p495
F-3.1307763372130506e-05
sVdaytime
p496
F-2.7089276178042456e-05
sVgrateful
p497
F7.3242530831770888e-05
sVunderstandable
p498
F-0.00025413813352123812
sVremarkably
p499
F0.00014220133123676626
sVabundant
p500
F3.2190602188791747e-05
sVresourceful
p501
F0.00039284185238095938
sVcertainly
p502
F5.7446792983345538e-05
sVuneven
p503
F-0.00091268233445285164
sVver
p504
F8.0506080486882084e-05
sVabsolutly
p505
F1.5198385861526297e-06
sVvey
p506
F8.5098197474674678e-05
sVanswered
p507
F3.0953136204150246e-05
sVfinally
p508
F-0.00037076664774753456
sVunpleasant
p509
F-0.0038699068606891313
sVpermanently
p510
F-0.00010460326084545525
sVstove
p511
F-0.00018275732799543271
sVbrown
p512
F-0.00040976909244728354
sVseemingly
p513
F-1.4804471048187858e-05
sVanyway
p514
F-0.00013826171520393973
sVanonymous
p515
F-4.4511819575251857e-05
sVfullest
p516
F-6.3501836599799189e-05
sVexact
p517
F-0.0002673160145328218
sVminute
p518
F-1.6861091642493331e-05
sVcool
p519
F0.00013834663697312617
sVimpressive
p520
F0.00023364636601187598
sVpurely
p521
F-0.00019588798644082741
sVaccidentally
p522
F-6.8058513024689833e-05
sVdiscrete
p523
F3.0909757624446488e-06
sVsoooo
p524
F3.7782518689130043e-05
sVsubway
p525
F2.5605430813190016e-05
sVquick
p526
F2.64708889968813e-05
sVunaware
p527
F-0.00038340137186218743
sVupper
p528
F2.8522470815716541e-05
sVunexpected
p529
F-5.0124208545120188e-05
sVslower
p530
F0.00022668285457748172
sVregret
p531
F-0.00023688950118025078
sVattic
p532
F-0.00021346693189730454
sVworn
p533
F-0.00018840752206690463
sVspacey
p534
F0.00015406096037417312
sVeating
p535
F-1.6948233199815193e-05
sVrough
p536
F-2.7044008601628735e-05
sVcosy
p537
F8.1299276209746327e-05
sVstressful
p538
F-8.816466490949864e-05
sVcleanliness
p539
F-0.00031670807558154413
sVlengthy
p540
F-6.0282642531437483e-05
sVcurrent
p541
F-0.00029720340436029536
sVinternational
p542
F-1.0560865708691481e-05
sVbeautifull
p543
F0.0001102908778824062
sVunsure
p544
F-2.5248031901770138e-05
sVunforeseen
p545
F0.00015254817033243632
sVfrench
p546
F7.4262492344919027e-05
sVunderstanding
p547
F-5.3167175529260277e-06
sValone
p548
F-2.0140160041125325e-05
sValong
p549
F3.5064491887646285e-05
sVsociable
p550
F9.9974030624290635e-05
sVnoticeable
p551
F-0.00016545658334264014
sVbrilliant
p552
F0.00012256630652303808
sVusually
p553
F-9.6940962327150804e-06
sVpriceless
p554
F0.00011812562816474061
sVconveniently
p555
F3.5129880927842292e-05
sVpillow
p556
F-0.0012051741355532121
sVbearable
p557
F-0.00020966941405743049
sVgenuinely
p558
F7.2180517871608827e-05
sVgorgeously
p559
F7.897188774321611e-05
sVadjustable
p560
F-9.1986744678010401e-05
sVlove
p561
F-4.3230698142770338e-05
sVextra
p562
F-9.335623472499517e-05
sVproblematic
p563
F-4.1277553218861093e-05
sVmerely
p564
F-0.00055728084161948987
sVmarvelous
p565
F0.00014168058847184248
sV1st
p566
F0.00015544691969435995
sVimmediatly
p567
F-3.7120344857008452e-05
sVrarely
p568
F-1.0609214625758551e-05
sVsympathetic
p569
F0.0003165935481767877
sVvivid
p570
F0.00026957944674366522
sVworking
p571
F0.00010491160981818266
sVpositive
p572
F-0.00011619635229223985
sVangry
p573
F-0.0015260152376851215
sVvisit
p574
F0.00011556782546776158
sVabroad
p575
F-1.4116470355227855e-05
sVlive
p576
F-9.6183346018749769e-06
sVwonderfully
p577
F0.0001474425558512484
sVaustralian
p578
F3.8909514938164486e-05
sVthru
p579
F0.00023842373937104627
sVloving
p580
F9.9504870043043431e-05
sVvous
p581
F5.8450991120268279e-05
sVacceptable
p582
F-0.00050467854344116354
sVapparent
p583
F-0.00010964931913670444
sVdowntown
p584
F2.7187450531696682e-05
sVvisual
p585
F3.1285321481538821e-05
sVeverywhere
p586
F-6.2876821411545118e-05
sVolive
p587
F9.9196765496871366e-05
sVeasiest
p588
F-3.7503422150346713e-05
sVsnow
p589
F7.3263264851432296e-05
sVoriginally
p590
F-0.00014174286711697695
sVcat
p591
F-0.00016626683656477618
sVfollowing
p592
F-0.00030964188175989414
sVferry
p593
F-2.9340460287018644e-05
sVarrive
p594
F-7.6262118210405571e-05
sVcaf
p595
F6.8445259687245773e-05
sVnearest
p596
F2.2651958111708458e-07
sVdedicated
p597
F0.0002766673956695282
sVawesome
p598
F3.5855087917212527e-05
sVconfused
p599
F-0.00020043983625266153
sVheard
p600
F-0.00013113530593055685
sVchic
p601
F0.0022503656659798653
sVwinter
p602
F-0.00013858871342578127
sVfortunately
p603
F-0.00018727146670751153
sVsecured
p604
F-4.7483052050556389e-05
sVtill
p605
F-0.00027777404895746498
sVvital
p606
F-0.00011820278146280259
sVactual
p607
F-0.000212679889283249
sVfourth
p608
F-1.0101324185877162e-05
sVnyc
p609
F0.00011544800575305519
sVunforgettable
p610
F0.0001363270508617136
sVunbelievable
p611
F2.632183575750573e-05
sVlaundry
p612
F2.3110498561186544e-05
sVmax
p613
F-1.6875482417026536e-05
sVdive
p614
F1.6439184039184577e-05
sVsouthern
p615
F0.00018445234169262817
sVunobtrusive
p616
F2.4270527451767921e-05
sVbirthday
p617
F6.3808662531502814e-05
sVmad
p618
F-4.2672068677933783e-05
sVsuch
p619
F5.1844340266362775e-05
sVfilthy
p620
F-0.0060374701208984836
sVunbelievably
p621
F-4.1901947009398042e-06
sVmuggy
p622
F-0.00019369499321893213
sVstress
p623
F0.00014444574316233358
sVnatural
p624
F3.6826693476213197e-05
sVconscious
p625
F-8.3703275842775455e-05
sVwhenever
p626
F4.8370353965557385e-05
sV6th
p627
F-0.00016569545460517538
sVsq
p628
F9.5494887811056121e-05
sVst
p629
F-6.8795059861605955e-05
sVsi
p630
F-0.00013779561455660408
sVso
p631
F-1.7466406291710167e-05
sVafrican
p632
F-2.715166082074611e-05
sVnous
p633
F1.2607307535153142e-06
sVse
p634
F0.00020902730339194015
sVtypical
p635
F4.8714227296890749e-05
sVcute
p636
F2.8997879437709159e-05
sVapprox
p637
F-4.3843659069095814e-05
sVappartment
p638
F-2.5953696119370345e-05
sVfurnished
p639
F7.5750789018875353e-05
sVindeed
p640
F7.172183617760124e-05
sVmainly
p641
F1.1867926871160443e-05
sVunacceptable
p642
F-0.0017305905368494676
sVplayful
p643
F5.5811856465351546e-05
sVcold
p644
F-0.00012291860254451116
sVstill
p645
F-0.00012756454442658139
sVearplugs
p646
F-3.212093959272483e-05
sVrooftop
p647
F7.1054286516575725e-05
sVthank
p648
F6.7100764988033536e-06
sVduplex
p649
F7.4046167497728743e-05
sVcleanest
p650
F-5.1405704573258955e-05
sVhot
p651
F-8.3169136243053748e-05
sVwindow
p652
F-0.00015866172922170368
sVspacious
p653
F5.1172162673771938e-05
sVlisting
p654
F-9.5840367554021809e-05
sVours
p655
F-0.00015502105189235912
sVmain
p656
F-6.2868385714353152e-05
sVinstantly
p657
F3.9208032924091914e-05
sVnon
p658
F-8.2147341410045442e-05
sVlonely
p659
F4.4357016871730002e-06
sVsooner
p660
F0.00031571760013969984
sVlunch
p661
F-6.059168934103925e-05
sVhalf
p662
F-8.4391231840793307e-05
sVnot
p663
F-0.00020126392881182452
sVnow
p664
F-0.0001015953162245246
sVnos
p665
F0.0001912031769878143
sVdidn
p666
F-0.00015055271356250285
sVentirely
p667
F2.9323984615638984e-05
sVindividually
p668
F-4.5940265206289422e-05
sVel
p669
F0.00040474231701434526
sVen
p670
F3.2443837834223523e-05
sVsignificantly
p671
F-0.00033695307934965149
sVet
p672
F9.9030516449058044e-05
sVgirl
p673
F-5.9521474589323341e-05
sVworried
p674
F-0.00015130299857569546
sVadequately
p675
F-6.6841171405795095e-05
sVes
p676
F-3.743247793289449e-06
sVliving
p677
F3.228531028573033e-06
sVultimately
p678
F-0.0001175152531491847
sV3rd
p679
F0.00018607632489400008
sVfurthermore
p680
F-0.00036662420759982342
sVcommunal
p681
F-0.00013794760622138193
sVseriously
p682
F-3.162645511646273e-05
sVwholeheartedly
p683
F5.4561109874958329e-05
sVinternet
p684
F3.4946609044858058e-06
sVspacy
p685
F0.00012589833467521519
sVcorrect
p686
F-0.00019716596593097861
sVauch
p687
F-0.00010559868891183996
sVcomplicated
p688
F-0.00011315895169205286
sVcouldn
p689
F6.404532915897746e-06
sVwrong
p690
F-0.0009949825036077776
sVhonest
p691
F-0.00025254534391234355
sVfunky
p692
F0.00011615892848200075
sVmassive
p693
F1.2265587400752556e-05
sVfrequent
p694
F9.3387006051711614e-05
sVfirst
p695
F-2.3310741619886899e-05
sVexotic
p696
F0.00029896763476296878
sVcheese
p697
F6.2907980811408937e-05
sVconstantly
p698
F-0.00032660186858803086
sVfast
p699
F5.0124028983664444e-05
sVdirectly
p700
F-2.2451913863644202e-05
sVfi
p701
F-2.5320124968881253e-05
sVimpossible
p702
F-0.00050963740789463177
sVopen
p703
F-3.8681036712166365e-05
sVont
p704
F0.00019719374170385124
sVcheerfully
p705
F8.7576316576199923e-05
sVrented
p706
F-0.00028268106908052647
sVlittle
p707
F-2.1124024869323069e-05
sVnecessarily
p708
F-0.00018222135011771541
sVsilent
p709
F-2.0380001876122594e-05
sVslept
p710
F-2.8482335141075024e-05
sVplastic
p711
F-0.00090625781428052999
sVdefinitly
p712
F8.5318951129808999e-05
sVwhite
p713
F-0.00016553353220296411
sVmostly
p714
F-6.0112388824362054e-05
sVthat
p715
F-0.00020383204568095032
sVflatscreen
p716
F-0.00012456181732242255
sVaccurately
p717
F1.6664126066344689e-05
sVridiculous
p718
F-0.00084230233149749489
sVminimalistic
p719
F0.00014945721318184227
sVundoubtedly
p720
F6.6119059394103969e-05
sVappreciated
p721
F5.6072743688249215e-05
sVbustling
p722
F-8.0013804830393758e-07
sVwide
p723
F3.7208157905332961e-05
sVthird
p724
F-0.00010690153437324562
sVmidtown
p725
F8.3193084730180962e-05
sVvictorian
p726
F-1.7061780526049953e-06
sVfuture
p727
F3.7952781393613447e-05
sVaesthetic
p728
F0.00026272723428266524
sVgigantic
p729
F0.0001281067661349267
sVshady
p730
F-0.00037481410791473217
sVproactive
p731
F0.00010731516730902454
sVprospect
p732
F-2.1342099784817501e-05
sVnicer
p733
F-8.9411126975965009e-05
sVpro
p734
F-9.6904341619294829e-05
sVcontactable
p735
F2.5592693260009236e-05
sVquartier
p736
F9.1211298025410616e-05
sVdelis
p737
F7.0582368353191776e-08
sVbreakfast
p738
F0.00022749688376997511
sVany
p739
F1.6015199766190503e-05
sVfashionable
p740
F-8.9325105574086788e-05
sVefficient
p741
F4.1794079113176269e-05
sVaside
p742
F-7.8609403742048168e-05
sVterrific
p743
F8.9766164832748654e-05
sVdining
p744
F-2.4313009219558557e-05
sVideal
p745
F4.2208031946922592e-05
sVpotential
p746
F-0.00033268439455262855
sVtake
p747
F-5.8209072007479377e-05
sVonline
p748
F-5.2768334682875401e-05
sVcreatively
p749
F0.00010970378291656641
sVpersonalized
p750
F-6.7619406319817138e-06
sVsure
p751
F1.2199536648040225e-05
sVamiable
p752
F0.0001828036714449438
sVtheatre
p753
F0.00023292540519902793
sVnormal
p754
F-0.00010732504596368936
sVneatly
p755
F0.00020728934520085096
sVimportantly
p756
F7.5582809286801509e-05
sVprinted
p757
F-2.2616116692274606e-05
sVsupremely
p758
F0.00018543059364619651
sVdefinatly
p759
F-5.4527335338642103e-05
sVforever
p760
F0.00027270204075735473
sVespecially
p761
F-1.8280773512435088e-05
sVflawlessly
p762
F5.4840622414324958e-05
sVaverage
p763
F-0.00010089334687137883
sVlater
p764
F-0.00018463011462967717
sVsteady
p765
F-3.9174422803628332e-05
sVhungry
p766
F-2.3122202726531505e-05
sVsoho
p767
F-1.1699299070154673e-05
sVprofessional
p768
F-1.8141393810000548e-05
sVsenior
p769
F-0.00029591451494344258
sVtypically
p770
F7.4895389286211035e-05
sVrepeatedly
p771
F-0.00059051628634553823
sVprecise
p772
F7.1591415086643279e-06
sVwalking
p773
F7.2888857109172832e-05
sVgerman
p774
F-0.0001033211598350641
sVcheap
p775
F-0.0001653696858232319
sVcontemporary
p776
F0.00032322902094527624
sVbright
p777
F7.0301817647988965e-05
sVcorner
p778
F0.00012982932104652211
sVaggressive
p779
F-0.0023746491900950351
sVfifth
p780
F-2.9078412637209566e-05
sVslow
p781
F-0.00022673694363248883
sVenough
p782
F6.7733864300488191e-06
sVonly
p783
F-5.05382715454771e-05
sVblack
p784
F-0.00067418145542389211
sVequipped
p785
F5.5708323797318022e-05
sVcentrally
p786
F4.7854907591265712e-05
sVclosed
p787
F-7.8906406612302916e-06
sVassistant
p788
F0.00015241670203687178
sVdesignated
p789
F-0.00015716474376122562
sVtruly
p790
F0.0001395988525768134
sVnearly
p791
F-0.00018171256945973484
sVlighter
p792
F-0.0002817277326094789
sVprime
p793
F2.3336051874997118e-05
sVartist
p794
F0.00071126042124022078
sVbusiest
p795
F-2.5331330754246862e-05
sVsummary
p796
F-8.0371489621289469e-05
sVskyline
p797
F6.134181807700087e-05
sVstupid
p798
F-0.00020979913950430038
sVarrival
p799
F-1.3973394539469573e-05
sVnoisier
p800
F0.0003033271392753825
sVartistically
p801
F0.00016745023535920725
sVphysically
p802
F-7.0126538207160506e-05
sVrelative
p803
F-0.00029546618166125926
sVasleep
p804
F-0.00024275751742160358
sVsean
p805
F2.1208069859750225e-05
sVparking
p806
F1.785736706909802e-05
sVsatisfying
p807
F-5.9503032331225644e-05
sVsubsequent
p808
F-9.0896647354490114e-05
sVcleaning
p809
F-0.00035979527700711142
sVdefinite
p810
F-1.8411250370723032e-05
sVoutside
p811
F-0.00010254299763770908
sVmoldy
p812
F-0.0018727199487323085
sVspartan
p813
F-0.00026194208310497389
sVaffordable
p814
F6.5714548034476633e-05
sVnotice
p815
F-3.7321732704684513e-05
sVuseful
p816
F4.5641386316625877e-05
sVscreen
p817
F8.5720514222470254e-05
sVlofted
p818
F8.2382573108062023e-05
sVspare
p819
F-3.3568836495682225e-05
sVtub
p820
F-7.7000619144308876e-05
sVcome
p821
F0.00010799084023280303
sVtalented
p822
F0.00051733984723908956
sVmany
p823
F1.7670390022022002e-05
sVbodega
p824
F-3.6462787008743688e-05
sVcafes
p825
F9.0966512698891137e-05
sVquiet
p826
F4.1179845002760885e-05
sVsomewhere
p827
F-0.00014662565453818957
sVsketchy
p828
F-0.00035272163768380914
sVloudly
p829
F-0.00082662028854355756
sVdated
p830
F-0.00014966619613817863
sVnearby
p831
F2.3192489329709908e-05
sVloveliest
p832
F1.2210313978423539e-05
sVtwin
p833
F-2.6618905439701847e-06
sVmoreover
p834
F5.680746154476771e-05
sVmattress
p835
F-0.0003050518835479641
sVcaring
p836
F0.0074486493150980014
sVsave
p837
F-2.1942978723039483e-05
sVawsome
p838
F1.3521539141772369e-05
sVcapable
p839
F-6.634297781006196e-05
sVarty
p840
F8.8145627312251194e-05
sVwest
p841
F7.1333823405636795e-05
sVlocally
p842
F0.00010320595140775259
sVinformed
p843
F-0.00038231660074982554
sVstylishly
p844
F0.00015164063076191693
sVwalkable
p845
F-6.8425879802733091e-06
sVdependable
p846
F-5.7396303521966476e-05
sVpeaceful
p847
F8.528424204218399e-05
sVhardly
p848
F-0.00010415598971403122
sVhomely
p849
F0.00010054240590149656
sVphotos
p850
F1.1112940214107008e-05
sVexternal
p851
F-0.00017086516431381128
sVattentive
p852
F7.8155943522044348e-05
sVformer
p853
F2.229963818624163e-06
sVcountless
p854
F0.00021459572366245812
sVsound
p855
F-1.8772635177853703e-05
sVaccommodating
p856
F4.6506190806642586e-05
sVchinatown
p857
F-2.5792487486051675e-05
sVongoing
p858
F8.1367526994681016e-05
sVcancelled
p859
F-9.6770723611256835e-05
sVshops
p860
F5.3935325559125927e-05
sVcoolest
p861
F4.9034817295693578e-05
sVthen
p862
F-0.00016529376931573856
sVinflatable
p863
F-7.8754177037892184e-05
sVsleeping
p864
F-0.00011878024215693835
sVmiddle
p865
F-0.000312356743582133
sVsudden
p866
F-5.6078756827015813e-05
sVambient
p867
F0.01889008345369516
sVeveryday
p868
F8.8039216187582378e-05
sVdifferent
p869
F-5.3266304508505069e-05
sVharsh
p870
F-0.00047096008498066013
sVcreaky
p871
F-4.0877620872318044e-05
sVtour
p872
F-4.5559004195220142e-05
sVhelpfully
p873
F7.9539677709289307e-05
sVdefenetly
p874
F1.6502001582007067e-05
sVtous
p875
F0.00029374349266065496
sVextended
p876
F9.184208413784981e-06
sVclosest
p877
F-6.4836982360969684e-05
sVnest
p878
F5.2481776924902818e-05
sVfoam
p879
F-0.00088171759933427596
sVdecently
p880
F-0.00041100742868046739
sVdelicate
p881
F0.00017186307960386212
sVtotally
p882
F-1.5190251281888155e-05
sVlargely
p883
F7.9670316018658075e-05
sVmagical
p884
F0.0066416693909837135
sVsevere
p885
F-0.00050336775328986257
sVbottle
p886
F-0.00011376016379319203
sVsoundproof
p887
F-0.00033306280026617252
sVuncomplicated
p888
F3.046128876121534e-05
sVtaxi
p889
F-6.1637975248275494e-05
sVoutdoor
p890
F5.9156531209003177e-05
sVknowledgeable
p891
F0.00015323566974312754
sVvaluable
p892
F4.7416571306508647e-05
sV125th
p893
F7.2759401828313258e-05
sVsweeping
p894
F-0.00022566336089348683
sVunclear
p895
F-0.00044031849813041136
sVtouch
p896
F5.2392668662569849e-05
sVpolish
p897
F-1.472692388403058e-05
sVhalfway
p898
F-0.00017782921691015898
sVextensive
p899
F0.00021907133847051381
sVjoyful
p900
F0.017312125548068696
sVreal
p901
F1.0064794753480465e-05
sVaround
p902
F-3.9777740805110312e-05
sVspectacular
p903
F0.00015071283250766562
sVeasily
p904
F3.5721058332220936e-05
sVsoundly
p905
F3.0578454125391362e-05
sVfridge
p906
F-0.00010750485308687708
sVearly
p907
F-5.6120602709151154e-05
sVpolitely
p908
F-0.00063847891614340988
sVlady
p909
F-0.00032989410559105669
sVrear
p910
F-0.00033264709442291094
sVmod
p911
F7.9905962566936736e-05
sVsensational
p912
F0.015551397150851586
sVsmell
p913
F-8.3421806316743598e-05
sVpregnant
p914
F-8.3091135084959123e-05
sVeither
p915
F-0.00011365849404424918
sVfully
p916
F5.0106580714164375e-05
sVpassionate
p917
F3.1026903384043106e-05
sVsatisfactory
p918
F0.00017566011676380249
sVexposed
p919
F-0.00026753917580205359
sVubicaci
p920
F0.0003122311529693517
sVdivine
p921
F0.00022159398034767486
sVexcelent
p922
F2.744438507435986e-06
sVgross
p923
F-0.0085351916314898302
sVcaribbean
p924
F-3.0050275192054361e-05
sVunlocked
p925
F-0.0014723885279408707
sVnoon
p926
F-0.00056478675409409756
sVoverly
p927
F-9.7162121349488105e-05
sVstops
p928
F0.00024445389299194471
sVcritical
p929
F2.231631029784564e-05
sVhipster
p930
F7.6980187860530502e-05
sVclaustrophobic
p931
F8.3065236184763402e-05
sVmoderate
p932
F-0.00013013930566148322
sVhustle
p933
F0.00020187877835534226
sVwelcome
p934
F4.1503997019303027e-05
sVintimate
p935
F0.00012736009698163618
sVsixth
p936
F-8.6577853258559899e-06
sVnotable
p937
F-5.9318177844400519e-05
sViconic
p938
F0.00026707800945615799
sVnotably
p939
F0.00019659281263333071
sVbroken
p940
F-0.00079233726913138737
sVhectic
p941
F7.650758394950563e-05
sVexciting
p942
F0.0001581870234998664
sVune
p943
F5.3499825110422434e-06
sVcentral
p944
F4.5579570342857867e-05
sVaircon
p945
F-3.3278841524693268e-05
sVoh
p946
F0.00012346371432436112
sVfavorite
p947
F8.9904103822578761e-05
sVunseasonably
p948
F0.00010396295664202974
sVside
p949
F5.0444115474511524e-05
sVpractical
p950
F0.0001188826230363428
sVgreatly
p951
F3.8079036019882646e-05
sVmixed
p952
F-0.00016222373757767864
sVquietly
p953
F0.00022360091169331412
sVlively
p954
F7.0027029216914355e-05
sVhomeless
p955
F-0.00091195617407862349
sVheated
p956
F5.9701029004889639e-06
sVuptown
p957
F0.00011573572189536475
sVlastly
p958
F-0.00030104439673718346
sVtechnically
p959
F-0.00021630129011261933
sVbubbly
p960
F9.4434813173621169e-06
sVaren
p961
F-9.9801330858975907e-06
sVthere
p962
F-3.5192722086095722e-05
sVlol
p963
F-6.3853692887234676e-05
sVlos
p964
F-9.5471205540047582e-05
sVlow
p965
F-0.00011938658859560726
sVbrazilian
p966
F-4.2999719118085222e-05
sVslowly
p967
F-0.00032181495072117498
sVstrict
p968
F-0.0003843118377728271
sVimmaculate
p969
F0.00014551633940385557
sVallergic
p970
F-0.00028469331720805266
sVcomplete
p971
F4.6886157127143258e-05
sVdelayed
p972
F7.4808102630565226e-06
sVamongst
p973
F-1.1906241969410834e-06
sVsophisticated
p974
F-0.00018349359332613428
sVunreliable
p975
F-0.00023351279022549743
sVdownstairs
p976
F-8.2491150754696941e-05
sVhandsome
p977
F0.00031889651469900872
sVrush
p978
F-0.00022708936392432447
sVarranged
p979
F-3.6556432937729266e-05
sVdominican
p980
F0.00028140015832211471
sVproactively
p981
F0.00013897733291036917
sVreceptive
p982
F-7.9124079829043464e-05
sVjamaican
p983
F1.9148313611250908e-05
sVnightlife
p984
F0.00010603383385277975
sVdetailed
p985
F9.2582776747401048e-05
sVtoilet
p986
F-0.00051238602895105107
sVac
p987
F-5.6067617956880325e-05
sVexhausted
p988
F-0.00015238651606547113
sVcertain
p989
F-0.00013042308753876818
sVal
p990
F7.9542827279001859e-06
sVdeep
p991
F-0.00012021022075117286
sVgeneral
p992
F-2.6262145336888046e-05
sVas
p993
F1.1677346478738187e-05
sVau
p994
F1.8771273321003505e-05
sVtogether
p995
F-1.1173053229828974e-05
sVgirlfriend
p996
F-7.4914810112844193e-06
sVtranquil
p997
F0.00024270593366097526
sVice
p998
F1.6506806385071423e-05
sVincorrect
p999
F-0.00059778874414849795
sVagain
p1000
F2.6287715022774375e-05
sVunwelcome
p1001
F-0.00048833422390343582
sVyoga
p1002
F-2.6904009816468017e-06
sVideally
p1003
F8.3036193641310949e-05
sVtight
p1004
F-7.7364126722252524e-05
sVpuppy
p1005
F2.3545925937934385e-05
sVpoor
p1006
F-0.00052269768533096919
sVbriefly
p1007
F0.00019064722807922137
sVseparate
p1008
F2.8571590779933554e-05
sVimportant
p1009
F3.0784610435035306e-05
sVsuited
p1010
F6.9478615939805603e-05
sVincluded
p1011
F1.6205687613767118e-06
sVdecorated
p1012
F5.6341268796408141e-06
sVcloseby
p1013
F0.00014223726500248962
sVtricky
p1014
F-0.00012445942921601331
sVremote
p1015
F-2.9517382681253435e-05
sVwifi
p1016
F2.66315493306342e-06
sVuntidy
p1017
F-0.00046433151805611744
sVexhausting
p1018
F5.2744876518586996e-05
sVhugely
p1019
F2.7321135739187263e-05
sValright
p1020
F-0.00016709174096274306
sVoverseas
p1021
F-3.2673561937764093e-05
sVoriginal
p1022
F7.66265179230626e-05
sVall
p1023
F-6.6654322860839791e-05
sVchinese
p1024
F-6.5467465341958911e-05
sVsuburban
p1025
F-6.2687102928744444e-05
sVthoughtful
p1026
F0.0001074454839348047
sVcooperative
p1027
F-8.9883449536610593e-05
sVdish
p1028
F-0.00016429504133731057
sVfaster
p1029
F-5.1846214685414165e-05
sVemily
p1030
F4.0819329231243332e-05
sVapartment
p1031
F-5.6342150234989051e-05
sVtr
p1032
F0.00022244273286487794
sVsparkling
p1033
F0.00063579637250453459
sVgraciously
p1034
F-4.1030237048981795e-05
sVsmile
p1035
F0.00013593659952029291
sVte
p1036
F0.00031240633501025938
sVta
p1037
F-0.00015188395452556317
sVpremium
p1038
F-0.00011438414478713186
sVworse
p1039
F-0.0012773227859997397
sVstraightforward
p1040
F-1.0569899356006266e-06
sVfar
p1041
F-3.6691517748319415e-06
sVcheckin
p1042
F-0.0001928565218442155
sVsont
p1043
F5.4868364890109309e-05
sVawful
p1044
F-0.0062330438948859142
sVmanageable
p1045
F-3.7244976875530091e-05
sVwasher
p1046
F9.3756201013829878e-05
sVenjoyable
p1047
F5.3544773010241667e-05
sVheaven
p1048
F0.00015814876649512157
sVwashing
p1049
F-0.00016967563816067122
sVmarvellous
p1050
F-7.107562942516707e-06
sVlarge
p1051
F5.5152568552774755e-06
sVsofter
p1052
F-0.00011570883320756553
sVsmall
p1053
F-4.0983357343390484e-05
sVquicker
p1054
F-0.00017602364939735298
sVneighborhood
p1055
F4.7519774448012356e-05
sVportable
p1056
F-0.00016461399460387569
sVten
p1057
F-4.1811481080648323e-05
sVtea
p1058
F-5.4205183073360156e-05
sVthroughly
p1059
F-9.2664056590103757e-05
sVpast
p1060
F-6.4448343531207269e-05
sVfurther
p1061
F3.3278215646768701e-05
sVaffable
p1062
F-9.3897799313374453e-05
sVfunctioning
p1063
F-1.9201739464581067e-05
sVcasual
p1064
F-0.0001012624509345516
sVsub
p1065
F-0.00029453645420457968
sVdeeply
p1066
F4.213299796110241e-05
sVanniversary
p1067
F0.00014948416725965721
sVpublic
p1068
F2.3848229190736261e-05
sVoutgoing
p1069
F6.9074436515631492e-06
sVfull
p1070
F-2.2833985314320575e-05
sVchristian
p1071
F6.6535360997091607e-05
sVloose
p1072
F-0.00050556968672798457
sVshouldn
p1073
F-0.00029476519077081869
sVyummy
p1074
F5.5328854881890961e-05
sVstrong
p1075
F-0.00011430973227131053
sVpersonable
p1076
F-3.4602327921177413e-05
sVahead
p1077
F-1.2190675516186015e-05
sVvegetarian
p1078
F0.00018389276651337082
sVexceptionally
p1079
F8.7977610381537592e-05
sVprior
p1080
F-6.9714955201488792e-05
sVsocial
p1081
F0.00020419514829194039
sVnarrow
p1082
F-4.6492167155889284e-05
sVuniquely
p1083
F-0.00024197000490375786
sVthankfully
p1084
F-0.00030801806862782122
sVsuddenly
p1085
F-0.0002425701660576783
sVexcellently
p1086
F0.00017179342063899862
sVtexts
p1087
F-0.00039267528404422016
sVsnug
p1088
F-2.8886941492998951e-05
sVtrained
p1089
F-3.7887515540107042e-06
sVreadily
p1090
F2.0956274322635002e-05
sVdistinct
p1091
F1.412868527333013e-06
sVrustic
p1092
F4.4945316968445452e-05
sVchaotic
p1093
F4.0395920102928888e-05
sVgorgeous
p1094
F0.00014663144878090771
sVsincere
p1095
F0.0064865986034258003
sVminor
p1096
F-5.8919891814795538e-05
sVmore
p1097
F-2.2182157153751816e-05
sVteen
p1098
F9.2083170590706213e-05
sVflat
p1099
F-1.1967510995037668e-05
sVdoor
p1100
F1.7786327264249292e-05
sVthus
p1101
F-0.00016432531793127513
sVbrisk
p1102
F1.8003834651077626e-05
sVbasically
p1103
F-9.9873705175961621e-06
sVparticular
p1104
F1.1978970391844705e-05
sVmellow
p1105
F0.00054090487360335495
sVglad
p1106
F8.2651397277693414e-05
sVden
p1107
F-6.4645529117147302e-05
sVspontaneous
p1108
F-3.4286337628415856e-06
sVmarble
p1109
F-9.9277721227936672e-05
sVdef
p1110
F2.2624671033795809e-05
sVbeautiful
p1111
F9.5043129330582869e-05
sVprompt
p1112
F2.6996715757581904e-05
sVchallenging
p1113
F-0.00017835261252717639
sVminimum
p1114
F-0.00033625012228674916
sVsharp
p1115
F-0.0007790092059586374
sVhuge
p1116
F2.5199310236359064e-05
sVawkward
p1117
F-4.2110302963466043e-05
sVrather
p1118
F-0.00013174001533806576
sVstayed
p1119
F4.8662812280127887e-05
sVunlucky
p1120
F-0.00026829040558025289
sVoccasionally
p1121
F-4.9775001726421215e-05
sVfreshly
p1122
F0.00013454249304084272
sVsandwich
p1123
F0.00010742171548262984
sVokay
p1124
F-0.00011312276911317731
sVrude
p1125
F-0.0071939469648007624
sVpetite
p1126
F3.8771458807114465e-05
sVnotre
p1127
F0.00016029907247493006
sVpanoramic
p1128
F-0.00024176463894381471
sVunfamiliar
p1129
F-0.00016131519138644173
sVcoming
p1130
F9.8331542117318028e-05
sVbackyard
p1131
F0.00023410938440120556
sVauthentic
p1132
F0.00017677698144236793
sVshort
p1133
F3.5494415766921592e-05
sVcrowded
p1134
F-3.814092026139901e-05
sVmeticulous
p1135
F2.5411631338967268e-05
sVovernight
p1136
F-2.9907730644146392e-05
sVanytime
p1137
F1.6399405287453259e-05
sVgeneric
p1138
F-0.00010186840343580231
sVpatio
p1139
F0.00026179919372662904
sVmexican
p1140
F4.717864945369128e-06
sVsooo
p1141
F1.2407318807513902e-05
sVsoon
p1142
F4.731431405357625e-05
sValready
p1143
F-1.637843836858229e-05
sVsame
p1144
F-3.9644874858135373e-05
sVbroadway
p1145
F0.00030546938214901355
sVavenue
p1146
F2.2536143671931847e-05
sVrapidly
p1147
F-0.0001584231086741747
sVactually
p1148
F-0.00012069879168966295
sVlate
p1149
F-3.220610887652231e-05
sVfriendliest
p1150
F0.00013358071357305896
sVwouldn
p1151
F-0.00015168356265611645
sVgood
p1152
F1.3198048383433834e-06
sVgenerously
p1153
F0.00017858169200733002
sVunreal
p1154
F-6.8178621914624031e-07
sVanticipated
p1155
F3.8083546012731374e-05
sVshuttle
p1156
F-9.4749406067722847e-06
sVfoot
p1157
F3.7121646970585259e-05
sVadventurous
p1158
F0.00011686946409769241
sVbigger
p1159
F-1.8469371915529653e-05
sVdesperately
p1160
F-0.0009634766961828992
sVeverytime
p1161
F-0.00010474829258706907
sValways
p1162
F4.1902972662686816e-05
sVaccommodated
p1163
F-5.3873368989062582e-06
sVexquisite
p1164
F0.00043709570115528805
sVheavy
p1165
F-2.701601299236539e-05
sVupstairs
p1166
F-0.00010558286910373336
sVfish
p1167
F-4.9322596867321734e-06
sVhard
p1168
F-0.00010592837850123728
sVengaging
p1169
F0.00027200949804021549
sVexpect
p1170
F-0.00015810717854782114
sVfist
p1171
F4.4680524436780744e-05
sVorganised
p1172
F-5.1954591529283961e-05
sVthick
p1173
F-0.00010351533923141969
sVreally
p1174
F3.2174923403022822e-06
sVcongenial
p1175
F7.3365473733633186e-05
sVexpansive
p1176
F0.00010250060951377241
sVfriday
p1177
F-0.00039182422314942969
sVpleasant
p1178
F9.1443685579135914e-06
sVextraordinary
p1179
F0.00018127146326941647
sVimagine
p1180
F-0.00031514313913168451
sVask
p1181
F7.7258623186286508e-05
sVdishwasher
p1182
F2.0095207500683726e-06
sVterrible
p1183
F-0.0029841791383086176
sVterribly
p1184
F-0.00060391339003019909
sVamerican
p1185
F-2.357107468775504e-05
sVtwenty
p1186
F0.00027815237490285137
sV5th
p1187
F-5.629544720614324e-05
sVmajor
p1188
F1.2207448841158251e-05
sVdont
p1189
F-0.00025343452017404422
sVfeel
p1190
F4.1836128181843853e-05
sVunusable
p1191
F-0.0015651149006418647
sVfancy
p1192
F3.7947328487430054e-05
sVeffortless
p1193
F0.00014235580361482151
sVmiss
p1194
F3.2816687003608806e-05
sVguest
p1195
F-0.00012409056723296582
sVgourmet
p1196
F4.3664121597762337e-05
sVavec
p1197
F3.001645407650258e-05
sVinteract
p1198
F-4.4087609288497774e-05
sVsmoother
p1199
F-4.0465191438206555e-05
sVmoderately
p1200
F-0.0002859537351552645
sVcomfy
p1201
F3.3581644909948729e-05
sVleast
p1202
F-0.00023270855495583371
sVwonderful
p1203
F7.3687658373510997e-05
sVhundred
p1204
F0.0002173514136661733
sVstore
p1205
F-7.7627159097492417e-05
sVtoo
p1206
F-3.812479602181448e-05
sVwarmly
p1207
F0.00012824370554338229
sVhelpful
p1208
F4.1041686619519842e-05
sVpark
p1209
F2.7409367636422012e-05
sVimmediate
p1210
F6.3415342972802883e-05
sVsizable
p1211
F1.4262502638066836e-06
sVluckily
p1212
F-0.00020780525729743486
sVstairs
p1213
F-2.9566744129911194e-05
sVgrocery
p1214
F6.3392958262339439e-05
sVsqueaky
p1215
F-0.00022827441683641385
sVkindly
p1216
F3.261297443643808e-05
sVdouble
p1217
F1.3751875158540334e-06
sVimpersonal
p1218
F4.8462424692525204e-05
sVbohemian
p1219
F0.00022732914632136612
sVcontrary
p1220
F-0.00027373745810585644
sVseamlessly
p1221
F0.00012193018653672473
sVrestful
p1222
F5.0563266221986977e-05
sVcleaner
p1223
F-0.00013853749998266423
sVoutstanding
p1224
F0.00014374031876356438
sVroughly
p1225
F-9.8779927915234312e-05
sVpedestrian
p1226
F1.1390836901163609e-05
sVsubstantial
p1227
F-0.00023015296355351455
sValike
p1228
F-4.8053160835306792e-06
sVcleaned
p1229
F-0.00022115817015977033
sVjour
p1230
F0.0004146268772360855
sVlil
p1231
F1.371740654294312e-06
sVself
p1232
F1.5356571249854718e-05
sVcouch
p1233
F-7.7151082039817479e-05
sVlit
p1234
F8.3338260240294897e-05
sValso
p1235
F-1.0486464234418859e-05
sVinternal
p1236
F0.0002712102446647852
sVuseless
p1237
F-0.00069426322504283547
sVdefintely
p1238
F4.3533900005553528e-06
sVserene
p1239
F0.00029117615950876501
sVexperienced
p1240
F0.00010160833339205857
sVeasygoing
p1241
F1.1926655220956898e-06
sVswiftly
p1242
F9.7120414211258627e-05
sVmost
p1243
F3.7461201584848612e-05
sVbrooklyn
p1244
F-6.2149297012243363e-05
sVplan
p1245
F-8.7523714232987852e-05
sVsignificant
p1246
F-9.5246586745327728e-05
sVextremely
p1247
F4.8887224959608838e-06
sVunavailable
p1248
F-0.00027592470757575833
sVmobile
p1249
F-0.00010025097615145109
sVclear
p1250
F-3.3927949221300969e-05
sVsometimes
p1251
F-6.1765000558441953e-05
sVtraditional
p1252
F-3.743681518475184e-05
sVcramped
p1253
F-5.544091908540221e-05
sVartistic
p1254
F8.4994178433046895e-05
sVclean
p1255
F1.4204952377662276e-05
sVusual
p1256
F2.8757898655311077e-05
sVstones
p1257
F3.3747162851429476e-06
sVparticularly
p1258
F1.761682002756552e-05
sVmeticulously
p1259
F0.00013150546402020718
sVcarefully
p1260
F-4.3397150519490811e-05
sVfine
p1261
F-5.7666951531550222e-05
sVfind
p1262
F0.0001790028110127087
sVgiant
p1263
F4.3711405945784951e-05
sVnorthern
p1264
F0.00014976417229483293
sVnervous
p1265
F1.0342841656787007e-05
sVheavily
p1266
F-0.00037105257601070579
sVunhappy
p1267
F-0.018489819275201862
sVpretty
p1268
F-7.0932155888549334e-05
sVhip
p1269
F0.00010513745948104263
sVtherefore
p1270
F-0.0002071462419875083
sVexpress
p1271
F-6.7931106526141882e-06
sVsunny
p1272
F8.163222365895371e-05
sVcheaper
p1273
F-7.8734362562773243e-05
sVfamous
p1274
F7.666270638643847e-05
sVfeels
p1275
F0.00026354578643366641
sVfastest
p1276
F5.0517058709565005e-05
sVclosely
p1277
F-0.00018323019787325797
sVbasement
p1278
F-0.00014111237892284838
sVcharmingly
p1279
F0.013536333251059672
sVcommon
p1280
F-9.4842739955706596e-05
sVcourteous
p1281
F-2.0689358062733182e-05
sVkeyless
p1282
F0.0001910734837500729
sVart
p1283
F0.00012107384236706908
sVindividual
p1284
F3.5319551987243936e-05
sVbare
p1285
F-0.00038143851859885115
sVcleverly
p1286
F-2.5541609668673854e-05
sVclose
p1287
F2.1300733610345068e-05
sVuser
p1288
F-3.6147727571746087e-05
sVcurrently
p1289
F-0.00040780072765011192
sVplease
p1290
F-0.00029402414857405778
sVsmallest
p1291
F-0.00041519179880970206
sVvarious
p1292
F3.9351955637727354e-05
sVrespectively
p1293
F0.00034247728849419684
sVprobably
p1294
F-0.00010254982642459795
sVweekly
p1295
F0.00011530681067676993
sVnumerous
p1296
F1.2720257328335317e-05
sVpictured
p1297
F1.3745747825926778e-05
sVavailable
p1298
F1.242668080274261e-05
sVsolo
p1299
F0.00011515762365277798
sVlatin
p1300
F-0.00011285200234298571
sVrecently
p1301
F7.4089949960080096e-05
sVsparsely
p1302
F0.00013483135301095632
sVcomplementary
p1303
F2.2420484580454043e-05
sVinitially
p1304
F-0.00016178286064058171
sVinvisible
p1305
F2.8947443973218509e-06
sVtaxis
p1306
F-5.6961920854231849e-05
sVlast
p1307
F-9.3622089159175288e-05
sVhesitant
p1308
F4.7558808906579829e-05
sVrestaurant
p1309
F4.6058159711785557e-05
sVbarely
p1310
F-0.00024396353345502249
sVforeign
p1311
F-9.8570340229158133e-05
sVsensitive
p1312
F1.5823855877777478e-05
sVforgotten
p1313
F-1.7376368903425891e-05
sVhippest
p1314
F0.00031161465641150234
sVwhole
p1315
F-4.5116030524519374e-05
sVupgraded
p1316
F3.1153253748904638e-05
sVluxurious
p1317
F4.9007577744471147e-05
sVsimple
p1318
F5.0724687434306647e-05
sVsweet
p1319
F6.4905571868187342e-05
sVsimply
p1320
F-1.5864901953198716e-05
sVexpensive
p1321
F-0.00022361373021558719
sVpatiently
p1322
F8.6812237620162284e-05
sVdescribed
p1323
F2.7064851139828963e-05
sVdue
p1324
F-0.00011809529272515881
sVsecret
p1325
F0.00030832355290433391
sVintrusive
p1326
F5.5383297602925791e-05
sVempty
p1327
F-0.00036492702590266816
sVfirm
p1328
F-1.5734192975112176e-05
sVaffectionate
p1329
F0.00010787526731358443
sVlived
p1330
F-0.0001321672529003767
sVpartly
p1331
F0.00016992098514425068
sVelse
p1332
F-9.5032585104187886e-05
sVpricey
p1333
F3.6659559984725896e-05
sVawake
p1334
F-0.00050379560838033539
sVdisruptive
p1335
F0.00011038366965033711
sVuncertain
p1336
F-2.2454059306737078e-05
sVhostess
p1337
F-8.2435272317146147e-06
sVfrozen
p1338
F-1.474618548353009e-05
sVreliable
p1339
F7.3606072261539647e-05
sVtip
p1340
F0.00013443093540596205
sVhealthy
p1341
F0.00017192769600212637
sVfun
p1342
F5.8056385043076844e-05
sVguide
p1343
F2.3167279589202366e-05
sVpack
p1344
F0.00020300217291780264
sVscheduled
p1345
F-0.00010059707052928793
sVunderground
p1346
F3.7971362205692278e-05
sVdisappointing
p1347
F-0.00079660501196347116
sVbeautifully
p1348
F0.00011429118263154173
sVready
p1349
F-3.130036628498207e-05
sVrid
p1350
F-0.00050291825756202226
sVfunny
p1351
F3.1561282551873911e-05
sVdecor
p1352
F0.00014856358676813193
sVanymore
p1353
F-0.00031678810021083304
sVelevated
p1354
F0.00049018143903748943
sVshorter
p1355
F9.1790868155688465e-05
sVreachable
p1356
F2.6380316480896348e-05
sVvirtually
p1357
F4.7762914461495887e-05
sVgrand
p1358
F0.00012815251528736977
sVhigher
p1359
F-0.00024025262869741007
sVhallway
p1360
F-0.00043534058278537371
sVused
p1361
F-0.00064171327467752132
sVtemporary
p1362
F-5.3643871544903814e-05
sVcomprehensive
p1363
F4.6483930906196795e-05
sVpainless
p1364
F1.0150653916358619e-06
sVpurpose
p1365
F-0.00016760753620452841
sVweird
p1366
F-0.00037871419960500456
sVrecent
p1367
F8.536186606460279e-08
sVdark
p1368
F-0.00020719232040757485
sVlower
p1369
F4.0628799200538557e-06
sVnoodle
p1370
F0.00038994440049883156
sVpicky
p1371
F-0.00019832410176013986
sVolder
p1372
F5.0076964264498435e-05
sVspent
p1373
F7.3133788758891364e-05
sVobviously
p1374
F-0.00030040330843649919
sVconcrete
p1375
F-7.4127368492524299e-05
sVdryer
p1376
F6.1772086859155167e-05
sVthoroughly
p1377
F-9.6101020882339281e-06
sVspend
p1378
F-8.760212486860842e-05
sVtemperamental
p1379
F-8.3002548584553288e-05
sVcompetitive
p1380
F-2.2827025481726995e-05
sVisolated
p1381
F0.00037071344343068524
sVnuestra
p1382
F0.00024284818457436246
sVregardless
p1383
F-6.1876703831988122e-05
sValternative
p1384
F-0.00012355662122959308
sVrundown
p1385
F-9.5215784688962735e-05
sVdisappointed
p1386
F-0.00054163311960349293
sValternate
p1387
F5.4466894747086511e-05
sVexclusively
p1388
F-0.00030943535039258983
sVeager
p1389
F0.00015530955902420986
sVlocation
p1390
F-1.4118842032904021e-05
sVexcited
p1391
F1.8354141744803877e-05
sVsurprised
p1392
F-0.00015568384276904958
sVniece
p1393
F-0.0001075049523734708
sVridiculously
p1394
F5.614336755691872e-05
sVfabulously
p1395
F-1.3977396628226768e-06
sVbig
p1396
F2.5538267019054869e-06
sVcouple
p1397
F2.2504789641697827e-05
sVunlimited
p1398
F0.00019723094334177422
sVtiring
p1399
F0.00012407486279486572
sVenthusiastically
p1400
F1.5890612635636813e-05
sVtruely
p1401
F0.00011486747179764067
sVculturally
p1402
F0.00031356694617477274
sVcrisp
p1403
F5.6155998527864086e-05
sVbit
p1404
F-6.9046558770516933e-05
sVformal
p1405
F0.00010516921775927739
sVskeptical
p1406
F-6.2363883086863901e-05
sVseperate
p1407
F5.2887641534391444e-05
sVinviting
p1408
F0.00018876947450069596
sVsemi
p1409
F-0.00024546772866236382
sVsincerely
p1410
F3.4790395903365034e-05
sVadmittedly
p1411
F-0.0001748353973320546
sVmulticultural
p1412
F4.7515805317588339e-05
sVseparately
p1413
F-0.00010731532383677972
sVunstable
p1414
F-0.00041149390359124992
sVvibrant
p1415
F9.1754398481841344e-05
sVpopular
p1416
F9.1617307321335508e-05
sVstylish
p1417
F0.00011590960284544406
sVessential
p1418
F-1.1060069016048294e-06
sVoften
p1419
F1.4305167614492672e-05
sVabsolutely
p1420
F5.6075566526363684e-05
sVmagnificent
p1421
F0.0036593574495419274
sVback
p1422
F-2.414015810421014e-08
sVurgent
p1423
F-7.3508358886364286e-05
sVadded
p1424
F8.8111679649628173e-05
sVsight
p1425
F4.7528077282168732e-05
sVtrendy
p1426
F7.266114978656015e-05
sVcurious
p1427
F1.3269564645978097e-05
sVelectric
p1428
F-0.00019898459898391
sVsmallish
p1429
F0.0003143512518877158
sVpet
p1430
F-3.6107657703468251e-05
sVminimal
p1431
F3.928820182745905e-06
sVpatient
p1432
F7.1210802524508386e-06
sVnowhere
p1433
F-0.00037115366254267506
sVintense
p1434
F-0.0001231079183967649
sVcautious
p1435
F-8.1934216644160814e-05
sVnetflix
p1436
F-0.00028579184692648698
sVcomplimentary
p1437
F1.7077028957180647e-05
sVshiny
p1438
F6.8158432024927626e-05
sVappropriate
p1439
F-0.00020273115353944922
sVsmelly
p1440
F-0.0007088341498594664
sVprimarily
p1441
F1.791198630756741e-05
sVconscientious
p1442
F0.00031729842440901611
sVshabby
p1443
F0.00032811631484751236
sVimpressed
p1444
F5.7856328828519247e-05
sVeleven
p1445
F-0.00011639396325724234
sVlong
p1446
F-9.7430027424511535e-05
sVhomemade
p1447
F2.219554205148463e-05
sVforward
p1448
F5.9264577783385522e-05
sVconsiderably
p1449
F-6.165697920914459e-05
sVelsewhere
p1450
F-0.00018008893495946772
sVjewish
p1451
F3.6218413376869293e-05
sVrelaxed
p1452
F7.4190687500618439e-05
sVproperly
p1453
F-0.00042676524093638582
sVlibrary
p1454
F3.2814176589232415e-05
sVnewer
p1455
F-2.4431228228399054e-05
sVrussian
p1456
F-0.00012675102596558193
sVcoldest
p1457
F1.8580282807441746e-05
sVconsiderable
p1458
F0.00013720521462398482
sVposted
p1459
F-0.00017622504874500317
sVinfo
p1460
F4.1684569930694167e-05
sVup
p1461
F-9.8044459836364067e-05
sVur
p1462
F0.00036149593567938817
sVum
p1463
F0.0013879074212806762
sVun
p1464
F6.819395785428111e-05
sVcontinuously
p1465
F-0.00056040831395580881
sVfried
p1466
F8.2244203886458085e-05
sVsimilar
p1467
F-0.00013546530092807156
sVuber
p1468
F-4.3027273626262673e-05
sVgenial
p1469
F0.00012765024757804906
sVconstant
p1470
F-9.6436199325852071e-05
sVworthwhile
p1471
F-8.4185481498367579e-05
sVmindful
p1472
F-0.00021282955926835848
sVunsafe
p1473
F-0.00021896562625731191
sVdoesn
p1474
F-0.00032220409396018228
sVsingle
p1475
F-6.5176952897608503e-05
sVdiverse
p1476
F0.00014526795615490252
sVchat
p1477
F3.7605673453188306e-05
sVcafe
p1478
F2.9247029713180971e-05
sVrainy
p1479
F0.00010207399126050995
sVthanks
p1480
F-0.00010472549204120243
sVoccasional
p1481
F0.0002158011712248735
sVelectrical
p1482
F-5.8781903751264301e-08
sVmanhattan
p1483
F-1.0967845259409563e-05
sVnice
p1484
F-4.1957211971121718e-06
sVhelpfull
p1485
F-3.1255925092566974e-05
sVenergetic
p1486
F0.00014159408008887009
sVbeatiful
p1487
F-8.7786289916086393e-05
sVprovided
p1488
F-9.3029017888144667e-06
sVfavourite
p1489
F0.00016469575063219669
sVunderstatement
p1490
F-0.00016924479643641186
sVprepared
p1491
F4.4413872650786379e-05
sVutterly
p1492
F-5.2651035975329887e-05
sVago
p1493
F-0.00014056907383300408
sVhappier
p1494
F0.00020285548430321864
sVpractically
p1495
F-7.9068731950696162e-05
sVrequired
p1496
F-0.00030025562065192772
sVfresh
p1497
F4.9032964492486597e-05
sVonce
p1498
F-6.904510426252506e-05
sVamish
p1499
F9.8062285589084795e-05
sVpartial
p1500
F-0.00043937212340786546
sVextensively
p1501
F-0.00037172552687419081
sVcheerful
p1502
F7.1656738781850006e-06
sVwindy
p1503
F-0.00042102494463454397
sVsanctuary
p1504
F0.00020861203001511445
sVclassic
p1505
F7.0581584001040419e-05
sVhumid
p1506
F-0.00014839039971705354
sVcompact
p1507
F8.6423449548087689e-05
sVvietnamese
p1508
F1.9858190640914562e-05
sVconcerned
p1509
F-0.00012272576114561514
sVyoung
p1510
F4.3765393420784298e-05
sVculinary
p1511
F0.00022698645445343822
sVstable
p1512
F3.7499166943416029e-05
sVcluttered
p1513
F-0.00048206982005931202
sVfriendly
p1514
F4.1987993993628763e-05
sVstocked
p1515
F5.4982874759206575e-05
sVrandom
p1516
F-0.00055333732931950926
sVgarden
p1517
F4.592292951750554e-05
sVkitty
p1518
F-4.2989566229013632e-05
sVromantic
p1519
F0.0002590611254548809
sVtimely
p1520
F-5.6748431228349761e-06
sVentire
p1521
F-7.5017699605154736e-05
sVprefect
p1522
F8.8711340189176726e-05
sVmagic
p1523
F5.9629544205380542e-05
sVrespectful
p1524
F2.3362968774661631e-05
sVunusual
p1525
F0.00013301176049786053
sVanxious
p1526
F-2.8945879763814643e-05
sVbusier
p1527
F-1.0558916594839691e-05
sVsomeday
p1528
F4.9779704369737909e-05
sVsmaller
p1529
F-5.3165313365597234e-05
sVuncomfortably
p1530
F-0.00035565888073604927
sVfold
p1531
F0.00027865553170219957
sVuncomfortable
p1532
F-0.0010987497511588781
sVodd
p1533
F-0.00017650900317895372
sVtrash
p1534
F-0.0008617919618252723
sVdisponible
p1535
F2.0804897931832092e-05
sVvivian
p1536
F7.1262890382957166e-05
sVespresso
p1537
F0.00041317440568648016
sVconsistently
p1538
F0.00010646705017259222
sVindian
p1539
F-1.1858368308721345e-05
sVpristine
p1540
F5.0968689977211918e-05
sVcozy
p1541
F5.9303089310592434e-05
sVdegree
p1542
F0.00021214090086232748
sV50th
p1543
F3.8135273251206682e-05
sVapologetic
p1544
F-0.00031858077409370683
sVcommercial
p1545
F-1.5970572481027581e-05
sVyoungest
p1546
F0.00041253580341669006
sVdesired
p1547
F6.8704255368682199e-05
sVexplore
p1548
F-5.502958371042535e-06
sVcab
p1549
F-2.7049721347011208e-06
sVlockable
p1550
F-8.1071333602065809e-05
sVsafer
p1551
F-0.00020382417332121805
sVfifteen
p1552
F3.2935255862166607e-05
sVextreme
p1553
F-0.00029578708732821166
sVgreat
p1554
F3.2713555138280007e-05
sVmetro
p1555
F1.6377289582875226e-05
sVuneasy
p1556
F-0.00029596532944905422
sVtechnical
p1557
F-4.802904492284053e-05
sVlarger
p1558
F1.4105724874129201e-05
sVdefinitively
p1559
F-1.1314991879142311e-05
sVapp
p1560
F-0.00054425841660661492
sVworthy
p1561
F0.00029468669309391858
sVapprehensive
p1562
F3.9964957530327881e-05
sVcrazy
p1563
F-1.6079224290244641e-05
sVapt
p1564
F-5.2961837000433274e-05
sVuse
p1565
F5.5161501996578186e-05
sViced
p1566
F1.7616615838128365e-05
sVseamless
p1567
F7.7360075457153754e-05
sVnext
p1568
F-1.341250573758324e-05
sVfew
p1569
F6.6929389519762388e-07
sVagreeable
p1570
F0.00064703916065007307
sVstart
p1571
F0.00014730974480920691
sVclever
p1572
F-0.00012251155490374622
sVupcoming
p1573
F6.6618496548882908e-05
sVinclined
p1574
F5.6503344306212289e-05
sVmusician
p1575
F-0.00047945388508015475
sVsister
p1576
F-6.4705126596099297e-05
sVcharming
p1577
F0.00011835656390848092
sVtrain
p1578
F-0.00011303479567823573
sVrubbish
p1579
F-0.00059786536497555417
sVgladly
p1580
F4.2848820745292598e-05
sVtad
p1581
F-0.00010435333351857586
sVride
p1582
F4.7271959490146286e-05
sVstrategically
p1583
F8.3677841793356258e-05
sVpour
p1584
F-2.7537544230700718e-05
sVanywhere
p1585
F5.8608383401385339e-05
sVobvious
p1586
F-0.00027784084064132631
sVthin
p1587
F-0.00028535673452713807
sVmeet
p1588
F-8.6488819033709034e-06
sVdidnt
p1589
F-0.00029321096323015419
sVhigh
p1590
F8.6889449355441963e-05
sVeffectively
p1591
F0.00021483122791101516
sVtal
p1592
F0.00016501716645261574
sVnative
p1593
F0.00014349813713867117
sVvaried
p1594
F0.00011677766370925984
sVfriendlier
p1595
F0.000193817791903401
sVpicturesque
p1596
F0.00017979426079149169
sVvibe
p1597
F0.00028160447918451257
sVwilliamsburg
p1598
F6.1401723726685058e-05
sVnoisey
p1599
F-3.2912424225996121e-05
sVfortunate
p1600
F6.4491592580793994e-05
sVlocated
p1601
F0.00010460532517583395
sVanimal
p1602
F-0.00038479665289672705
sVcual
p1603
F-6.4136090098386146e-05
sVinstead
p1604
F-0.00032565981514566782
sVintelligent
p1605
F0.00022158293837399527
sVcupboard
p1606
F0.00014560234660390315
sVdefenitely
p1607
F0.00019291594807281878
sVefficiently
p1608
F3.1331677140239288e-05
sVlight
p1609
F-1.7201405699887069e-05
sVlinen
p1610
F-4.1943767912652969e-06
sVhonestly
p1611
F-6.1280763052241465e-05
sVclassy
p1612
F0.0058869902347037798
sVamable
p1613
F0.00038059329217159056
sVknowledgable
p1614
F-2.45073716126511e-06
sVwhilst
p1615
F-7.9673981725698504e-05
sVperfect
p1616
F6.2106144493289232e-05
sVsuperior
p1617
F0.00026562845898552348
sVle
p1618
F0.00011486808050491714
sVla
p1619
F3.6246127254120075e-05
sVconsiderate
p1620
F7.9543771982475416e-05
sVll
p1621
F7.8822075895277745e-05
sVpermanent
p1622
F-0.00017473715780855827
sVchoose
p1623
F-0.00022220466524814145
sVholiday
p1624
F8.2459371434800673e-05
sVpure
p1625
F7.6842201731704645e-05
sVlegendary
p1626
F0.00077176033441594808
sVoptimal
p1627
F1.3216795844748667e-05
sVfront
p1628
F-0.00014322003504346856
sVhandy
p1629
F4.3371340610609652e-05
sVsuppose
p1630
F-0.0012422584447570129
sVminimalist
p1631
F0.00019520460676270704
sVscenic
p1632
F5.1633090032197584e-06
sVsufficiently
p1633
F0.00012110906018322563
sVdelightful
p1634
F0.0001379558511757945
sVweather
p1635
F4.8430416865341138e-05
sVrelated
p1636
F0.0002129108504151514
sVrecomendable
p1637
F7.508291088921163e-05
sVspecial
p1638
F0.00014644621975539151
sVout
p1639
F-0.00013077416252328084
sVboutique
p1640
F0.00012507777904102556
sVairbnb
p1641
F-2.3693833978983954e-05
sVsuperbly
p1642
F3.9997581032359734e-05
sVhilarious
p1643
F0.00012016080614153548
sVconvinient
p1644
F0.00015869062723738951
sVred
p1645
F-7.9272385113580494e-05
sVumbrella
p1646
F6.2079850798477771e-05
sVmolly
p1647
F0.00011150524234242171
sVpromptly
p1648
F3.438851071769918e-05
sVcompletely
p1649
F-0.00014819848624578595
sVque
p1650
F0.00030410332056164489
sVqui
p1651
F0.00021327253001768455
sVscary
p1652
F-0.00038837642842004858
sVorganic
p1653
F0.00014083719357440699
sVchilly
p1654
F7.5207266911191757e-05
sV4th
p1655
F-0.00010348996155731349
sVhence
p1656
F0.00029452081906763635
sVretail
p1657
F0.00014418966387694045
sVsouth
p1658
F1.8867440657213688e-05
sVcomfiest
p1659
F8.4570492914705931e-05
sVprospective
p1660
F-0.00024807484095396687
sVfinest
p1661
F0.0002388695364908511
sVethnic
p1662
F0.00019928276399255003
sVpowerful
p1663
F2.0236850545623509e-05
sVstrategic
p1664
F5.6331314422981141e-05
sVprecisely
p1665
F-2.6347587349314303e-05
sVquality
p1666
F0.00018173929594342958
sVumbrellas
p1667
F-0.00010776132235525561
sVsadly
p1668
F-0.0001421652202982268
sVfair
p1669
F-7.8808643556489954e-05
sVprivacy
p1670
F-0.00047755080336207628
sVunknown
p1671
F-0.00021766245868028638
sVtouristy
p1672
F5.6509502381678945e-05
sVperfectly
p1673
F5.1850743261105339e-05
sVfinal
p1674
F-1.9457521485015909e-05
sVexactly
p1675
F2.4628335458337163e-05
sVapproachable
p1676
F4.3107880354738347e-06
sVwonderfull
p1677
F-7.874865567528933e-06
sVoverwhelming
p1678
F-7.0604071993087507e-05
sVhaven
p1679
F-4.1269440952626193e-05
sVloved
p1680
F4.312031410444667e-05
sVglamorous
p1681
F-0.00021276801544989099
sVheartedly
p1682
F-2.2659618375396937e-05
sVconfortable
p1683
F2.6893279579608638e-05
sVboring
p1684
F-0.015895003313613567
sVbother
p1685
F-0.00016821754150001423
sVshampoo
p1686
F-2.9359810138201439e-06
sVbed
p1687
F-8.9559000005322932e-05
sVmaybe
p1688
F-0.0001434000304106554
sVvisited
p1689
F-4.5662152941676167e-05
sVsteep
p1690
F-0.00016252265078315966
sVdusty
p1691
F-0.00061268379250469928
sVfalse
p1692
F-0.0019176756217600057
sVlightly
p1693
F-0.00021702835821237881
sVjulian
p1694
F0.0002741513108080504
sVtidy
p1695
F3.8026056348364476e-05
sVgently
p1696
F-0.00014236661074769301
sVcomfortable
p1697
F3.9544113011349112e-05
sVquietest
p1698
F7.943995512924899e-05
sVgentle
p1699
F0.00021845072284307559
sVcomfortably
p1700
F5.2922632948949776e-05
sVunlikely
p1701
F2.8544323710545379e-05
sVvegan
p1702
F0.00015339238821969722
sVneed
p1703
F7.8792795834804524e-05
sVapparently
p1704
F-0.00039078541916654289
sVclearly
p1705
F-0.00018867004941778155
sVunbearable
p1706
F-0.00066637234472581857
sVafraid
p1707
F-0.00041631080424790469
sVminimally
p1708
F0.00014409617810446198
sVmin
p1709
F2.4700581228443715e-05
sVable
p1710
F-2.2832885050664349e-05
sVmid
p1711
F2.508583510929821e-05
sVbagel
p1712
F1.6720322395717842e-05
sVahold
p1713
F-6.0957324674346442e-05
sVkorean
p1714
F-0.00018192375553446926
sVlily
p1715
F0.00016689533772846327
sVunbearably
p1716
F-0.0013300050789516351
sVconnected
p1717
F0.00016754449839999244
sVtall
p1718
F-5.311842651911907e-05
sVsally
p1719
F-6.3711182348084671e-05
sVrefreshing
p1720
F-5.3183273119753819e-05
sVneighboring
p1721
F5.6994481927021839e-06
sVenthusiastic
p1722
F7.3744932930375521e-05
sVupset
p1723
F-0.001655277523408893
sVnormally
p1724
F-4.1368149083483068e-05
sVatmosphere
p1725
F8.1263840625848022e-05
sVexclusive
p1726
F1.0029951613349049e-05
sVtext
p1727
F-0.00010113438052922324
sVagreed
p1728
F-0.00034450723525920066
sVindoor
p1729
F-4.8951247384090249e-05
sVartfully
p1730
F0.00038414638449214096
sVbring
p1731
F-7.7056340636188638e-05
sVcareful
p1732
F-0.00019071282372873217
sVpleased
p1733
F2.6926060505063029e-05
sVinspiring
p1734
F0.00040099835714904922
sVear
p1735
F-5.7929031474670371e-05
sVterminal
p1736
F2.4816377400690154e-05
sVreactive
p1737
F5.5983909618475685e-05
sVlocal
p1738
F7.3975861078979179e-05
sVregularly
p1739
F-3.4565473851766288e-05
sVexceptional
p1740
F0.00010932524287896413
sVbeat
p1741
F6.6630974535799935e-05
sVfamiliar
p1742
F-4.4330669786730016e-05
sVunbeatable
p1743
F7.8963936893301529e-05
sVoverall
p1744
F-4.6244268628967445e-05
sVlucky
p1745
F0.00010485463130643391
sVdodgy
p1746
F-0.00015801681696371871
sVendless
p1747
F0.00013491627795151785
sVshy
p1748
F8.8870047237916142e-05
sVmarried
p1749
F-0.00012831797375798546
sVsubways
p1750
F1.1857949291515992e-05
sVstuff
p1751
F0.00014459037949716153
sVwish
p1752
F-6.8112861435481014e-05
sVsolicitous
p1753
F6.0211668706481922e-05
sVfixed
p1754
F-0.00012422491926872333
sVtemporarily
p1755
F-0.00024616675816998559
sVfantastically
p1756
F1.2151623935832687e-06
sVartsy
p1757
F0.00012811061971111916
sVdesperate
p1758
F-0.0004909332017747726
sVluminous
p1759
F2.5555582652272907e-05
sVpacked
p1760
F-5.0133918875685735e-06
sVcloser
p1761
F-9.2982163425712333e-05
sVcloset
p1762
F-6.4602790050764938e-05
sVarguably
p1763
F2.4172824924716262e-05
sVsuperb
p1764
F8.7626999987576161e-05
sVquickest
p1765
F-1.0001987673187568e-05
sVcorrectly
p1766
F-0.0003550419652224579
sVhorrible
p1767
F-0.0044664521342897209
sVemail
p1768
F0.00010050712083725592
sVdirty
p1769
F-0.0016110058850049372
sVcomparable
p1770
F-0.00027548635032824029
sVspecious
p1771
F1.4398755415052641e-06
sVkey
p1772
F-9.1394745619878325e-05
sVprecious
p1773
F2.8949487817795514e-05
sVswift
p1774
F1.506193718912963e-05
sVlegit
p1775
F0.00011834642202529052
sVinstant
p1776
F-0.00013441907549319805
sVfreely
p1777
F-6.2128046323169156e-06
sVequal
p1778
F6.0112588162430472e-05
sVetc
p1779
F4.5684492287320316e-05
sVinteresting
p1780
F5.7582011373326751e-05
sVsafely
p1781
F2.4239824922355505e-05
sVglorious
p1782
F0.01020027813529515
sVotherwise
p1783
F-7.7977447794791931e-05
sVstrongly
p1784
F3.2550343576511715e-05
sVrelevant
p1785
F7.0307728291378014e-06
sVco
p1786
F-0.00017854817502160547
sVwall
p1787
F-0.00021586138342339292
sVinvasive
p1788
F-1.1707172004762147e-05
sVwalk
p1789
F0.00010178212329598281
sVtable
p1790
F-7.2834380617495272e-05
sVunclean
p1791
F-0.0012306864803952656
sVquit
p1792
F7.7377140446610713e-06
sVtremendous
p1793
F9.9910309127750426e-05
sVdecent
p1794
F-0.0001801037562334339
sVwilling
p1795
F4.5423390545732881e-06
sVseasoned
p1796
F-4.797598083497059e-05
sVupbeat
p1797
F1.4188112749304583e-05
sVhottest
p1798
F9.4802277098174367e-05
sVsufficient
p1799
F3.3290256213904993e-05
sVneighbour
p1800
F-6.4041276027842136e-05
sVbrunch
p1801
F0.00017380850794738949
sVfellow
p1802
F0.00023633020038494297
sVpresent
p1803
F-1.1801110602645563e-05
sVmulti
p1804
F-2.324084732513432e-06
sVwelcoming
p1805
F4.0391324771015121e-05
sVplain
p1806
F-0.00044102114739190829
sVhomey
p1807
F7.5617795647388541e-05
sVharder
p1808
F2.4506314711431054e-05
sVspecifically
p1809
F-0.00022774909264212468
sVstunning
p1810
F0.00014091411861501106
sVaccesible
p1811
F-6.2124028931733193e-05
sVwild
p1812
F0.00014112816862581646
sVtasty
p1813
F7.1408102876973777e-05
sVultra
p1814
F0.00018990349648217056
sVfrustrating
p1815
F-0.00020251931357986663
sVannual
p1816
F-8.044117090331276e-06
sValmost
p1817
F-3.6798090493538223e-05
sVinsanely
p1818
F-0.00010340224690048044
sVlush
p1819
F5.9307927736813187e-05
sVsurprisingly
p1820
F6.1115071152146566e-05
sVave
p1821
F3.8590297615076336e-05
sVgreater
p1822
F0.00024343316832344745
sVperhaps
p1823
F-9.3267347830226183e-05
sVvintage
p1824
F4.9909092248226405e-06
sVcross
p1825
F-8.1344333617955472e-05
sVpleasent
p1826
F-3.5114970691753786e-05
sVstrange
p1827
F-0.00044761154557883601
sVlargest
p1828
F-6.183467481707214e-05
sVeclectic
p1829
F0.00016419213242234784
sVdifficult
p1830
F-0.0002029272682469223
sVimpeccably
p1831
F9.9736459974189416e-05
sVdefinately
p1832
F5.1699127374484997e-05
sVupon
p1833
F-2.0816582494562674e-05
sVnightly
p1834
F-0.00023159135061563878
sVdust
p1835
F-0.0010206955237354164
sVfrequently
p1836
F9.9134031338200931e-06
sVimpeccable
p1837
F9.862066854820993e-05
sVpleasantly
p1838
F5.7229210593713533e-05
sVoff
p1839
F-0.00014946092388983239
sVnevertheless
p1840
F-1.4368052485921773e-05
sVincredible
p1841
F0.00013177417168071183
sVwell
p1842
F2.2190302936689137e-05
sVexceedingly
p1843
F0.00033907303951713643
sVenglish
p1844
F-5.8419021032659607e-05
sVfirstly
p1845
F-0.0001049606469933889
sVlatest
p1846
F-8.7274357426749607e-05
sVtaller
p1847
F-0.00012104541008383789
sVexcessive
p1848
F-0.00014187608001202227
sVattractively
p1849
F0.00020060341863627895
sVless
p1850
F1.5990440715670529e-05
sVaccurate
p1851
F-2.4234413506910467e-05
sVdistant
p1852
F0.00011369522388008093
sVadvertised
p1853
F-1.7297005871791206e-05
sVtough
p1854
F-5.1588991359123151e-05
sVroomy
p1855
F3.5873646046300929e-05
sVgenerous
p1856
F0.00017473975415167859
sVrapid
p1857
F0.00010589777289771587
sVwee
p1858
F7.4264195636198884e-05
sVresidential
p1859
F7.1862937805836348e-05
sVtransparent
p1860
F-0.00062755569818861024
sVattractive
p1861
F0.00011546700539474662
sVwet
p1862
F-0.00073564952794938267
sVsmart
p1863
F8.0675208636198144e-05
sVidentical
p1864
F-1.6728039782724183e-05
sVample
p1865
F9.3536489489584723e-05
sVpunctual
p1866
F1.9940393216867435e-07
sVensuite
p1867
F7.8392520642555155e-05
sVhistoric
p1868
F0.00020591593808845778
sVknow
p1869
F-0.00019444301244422716
sVimmediately
p1870
F-3.3695387742806309e-05
sVlilian
p1871
F5.9881730782705357e-05
sVnecessary
p1872
F3.2669011934219992e-05
sVlike
p1873
F-4.6602409045853367e-05
sVlost
p1874
F-0.00010766108189322302
sVsafest
p1875
F-7.5940361081186403e-05
sVsofa
p1876
F-8.63760998897251e-05
sVsized
p1877
F0.00017962561029805324
sVsoft
p1878
F2.867705011708157e-05
sVaudible
p1879
F-0.00025718028783201698
sVitalian
p1880
F7.8310247337675e-05
sVaccessible
p1881
F9.001981898043522e-06
sVbecause
p1882
F-0.00025587021396975614
sVhomy
p1883
F0.019182557220259838
sVclassical
p1884
F0.0002146009130801543
sVsmoothly
p1885
F7.5699448222220483e-06
sVscared
p1886
F-6.6024500483574916e-05
sValive
p1887
F0.00014905384381572173
sVhair
p1888
F4.738622342797291e-05
sVwarmer
p1889
F8.6830889572656552e-05
sVproper
p1890
F-0.00016778375915668659
sVhome
p1891
F-0.00011881898443632331
sVsupportive
p1892
F9.0973525513637595e-05
sVstuffy
p1893
F-0.00049712208359874101
sVtransport
p1894
F2.2685152474677013e-05
sVest
p1895
F4.3656043494117247e-05
sVaesthetically
p1896
F0.00035785920761758217
sVunpredictable
p1897
F-0.00014539476659358413
sVliterally
p1898
F-2.2814343922542818e-05
sVkettle
p1899
F-6.4404345187843589e-05
sVappreciative
p1900
F7.3134800973022888e-06
sVeconomical
p1901
F0.00010710197501012245
sVnoise
p1902
F2.3098095269375791e-05
sVslight
p1903
F-4.3264399961338948e-05
sVstellar
p1904
F5.4306031372002982e-05
sVhost
p1905
F-0.00018502225686418657
sVhospitable
p1906
F2.8179251133662879e-05
sVperiodically
p1907
F-2.8303658724311293e-05
sVnoisy
p1908
F-7.7503636413479783e-05
sVabout
p1909
F-2.9195922028246322e-05
sVrare
p1910
F0.00013515288769272449
sVserviceable
p1911
F-2.3569357302530876e-05
sVagradable
p1912
F-3.235872314809138e-05
sVequally
p1913
F0.00033107532397822913
sVown
p1914
F5.9193930257932887e-07
sVadditionally
p1915
F-0.00014590998272992682
sVpreviously
p1916
F-0.00023611362695353364
sVfunctional
p1917
F7.7103009738931067e-05
sVsquare
p1918
F-1.0071602493940723e-05
sVfemale
p1919
F-0.00019098342664002969
sVmere
p1920
F0.00017503803579922348
sVbrilliantly
p1921
F3.173527223983634e-05
sVadditional
p1922
F-0.00018745662946988259
sVspiral
p1923
F1.90057237054984e-06
sVcontinental
p1924
F0.00081132089096882121
sVinner
p1925
F6.0474424499390674e-05
sVrecommendable
p1926
F1.8030132477047915e-05
sVbiggest
p1927
F-0.00013406785334965703
sVnaturally
p1928
F0.00025222594979248079
sVnorth
p1929
F0.00017847657505949135
sVgluten
p1930
F0.00029656383015218784
sVbus
p1931
F-7.8953118235831066e-05
sVhighest
p1932
F0.00018300080569668588
sVeat
p1933
F5.9628623490335809e-05
sVpartially
p1934
F-0.0005293534344780605
sVmade
p1935
F9.6536654474266325e-05
sVevident
p1936
F-0.00014424661453427086
sVdangerous
p1937
F-0.00058461668275961386
sVofficial
p1938
F-0.00013188220913497862
sVsmooth
p1939
F2.9500986461033368e-05
sVflip
p1940
F-0.00059067163423694744
sVaccommodative
p1941
F-3.6643543593695218e-05
sVconverted
p1942
F-0.00012715709668715723
sVcordial
p1943
F-6.0623986813630531e-05
sVirish
p1944
F2.3773170473259198e-05
sVinadequate
p1945
F-0.00050111398100730357
sVutensils
p1946
F-2.5366231244342238e-05
sVnonetheless
p1947
F-7.4030856828497687e-05
sVother
p1948
F-7.384918366468336e-05
sVneighbourhood
p1949
F6.205569616048935e-06
sVsick
p1950
F-0.00025603586987268105
sVincredibly
p1951
F4.1777891345070334e-05
sVstar
p1952
F0.00017055685581029067
sVstay
p1953
F4.4048209183850061e-05
sVtoasty
p1954
F8.4174824201771473e-05
sVkinda
p1955
F-0.00025822084726993767
sVsoftest
p1956
F-0.00011030899080223528
sVfriends
p1957
F1.4589538912147199e-07
sVusefull
p1958
F1.1935286578548418e-05
sVlaundromat
p1959
F-1.291563391007113e-05
sVbaked
p1960
F3.7845705473481425e-05
sVrepresentative
p1961
F-0.00014906673673993913
s.