(dp1
VLa Semana Hotel 
p2
F-0.099743478260869517
sVThe Knickerbocker 
p3
F0.87233810463968353
sVHotel Metro 
p4
F0.91538206850234805
sVTrump SoHo New York 
p5
F0.79440729166666635
sVFairfield Inn & Suites New York Midtown Manhattan/Penn Station 
p6
F0.87680988142292471
sVWindsor Hotel 
p7
F0.52740168067226867
sVSmyth, a Thompson Hotel 
p8
F0.90687058823529432
sVHotel Chandler 
p9
F0.84597289862455194
sVHotel Riverside Studios 
p10
F0.23988926174496647
sVThe Amsterdam Inn 
p11
F0.6753742857142857
sVHotel Pennsylvania New York 
p12
F0.19514209466263868
sVWorld Center Hotel 
p13
F0.84671908783783845
sVGardens NYC\u2013an Affinia hotel 
p14
F0.87355619573796384
sVDoubletree by Hilton New York Times Square West 
p15
F0.98999999999999999
sVThe Jewel facing Rockefeller Center 
p16
F0.86680105820105757
sVHotel Plaza Athenee New York 
p17
F0.98440000000000005
sVOakwood at Longacre House 
p18
F0.95330000000000004
sVRedford Hotel 
p19
F0.52053636363636369
sVFour Points by Sheraton Manhattan Chelsea 
p20
F0.76246268656716443
sVHotel Giraffe by Library Hotel Collection 
p21
F0.93979513343798882
sVWarwick New York 
p22
F0.84742530712530562
sVInterContinental New York Times Square 
p23
F0.81263966745843275
sVNew York Inn 
p24
F-0.01270648148148147
sVKimpton Ink48 Hotel 
p25
F0.88559378367177621
sVHoliday Inn NYC - Lower East Side 
p26
F0.97950000000000004
sVONE UN New York 
p27
F0.97030000000000005
sVMorningside Inn 
p28
F0.47537492063492082
sVSIXTY SoHo 
p29
F0.81254350797266472
sVElk Hotel 
p30
F0.64923333333333333
sVKitano New York 
p31
F0.84542302259886948
sVU.S. Pacific Hotel 
p32
F0.37398124999999999
sVWorld Hotel 
p33
F-0.067394630872483208
sVHudson River Hotel 
p34
F0.86860000000000004
sVThe Dorset 
p35
F-0.75890000000000002
sVRiff Chelsea 
p36
F0.50252058823529389
sVWall Street District Hotel 
p37
F0.82979999999999998
sVManhattan West Hotel 
p38
F0.41863809523809525
sVHoliday Inn Express Manhattan Times Square South 
p39
F0.86910899280575571
sVNobleDEN Hotel 
p40
F0.99650000000000005
sVThe Tuscany - A St Giles Signature Hotel 
p41
F0.88117989949748887
sVCassa Hotel Times Square 
p42
F0.8597355817875203
sVRamada New York/Eastside 
p43
F0.77780202976995894
sVMount Royal Hotel & Hostel 
p44
F0.016990000000000005
sVPark Savoy 
p45
F0.43593111111111116
sVHotel Cliff 
p46
F0.66408333333333325
sVOakwood at 777 6th Avenue 
p47
F0.95420000000000005
sVArlo NoMad 
p48
F0.93400000000000005
sVManhattan Broadway Hotel 
p49
F0.44368913043478253
sVExecutive Hotel LeSoleil 
p50
F0.86151829268292646
sVNYLO New York City 
p51
F0.79833429090908947
sVSenton Hotel 
p52
F-0.26287500000000003
sVOxbridge Midtown East Apartments 
p53
F0.70499999999999996
sVFlushing Motel 
p54
F0.73173333333333324
sVSignature Properties 
p55
F0.067466666666666633
sVSt. Marks Hotel 
p56
F0.70398303571428578
sVHyatt Union Square New York 
p57
F0.81395189075630159
sVHotel Mimosa 
p58
F0.35748311688311696
sVThe Melrose Hotel 
p59
F0.96199999999999997
sVThe Algonquin Hotel Times Square, Autograph Collection 
p60
F0.8280308625336934
sVThe Lucerne Hotel 
p61
F0.86815797425853325
sVBaccarat Hotel & Residences New York 
p62
F0.99419999999999997
sVBeekman Apartments 
p63
F-0.23183333333333334
sVMarrakech Hotel 
p64
F0.61736328986960942
sVEnvoy Club Suites 
p65
F0.83289999999999997
sVChelsea Inn - 17th Street 
p66
F0.43422363636363637
sVGreenwich Hotel 
p67
F0.9414723880597009
sVWest 57th Street by Hilton Club 
p68
F0.79219191797346067
sVThe Redbury New York 
p69
F0.94252499999999995
sVHoliday Inn Express New York City 
p70
F0.80675835734870405
sVThe High Line Hotel 
p71
F0.84220087912087971
sVDays Inn Hotel New York City-Broadway 
p72
F0.45770543478260883
sVThe Roxy Hotel Tribeca 
p73
F0.92101152542372844
sVParamount Hotel Times Square New York 
p74
F0.61829326399207496
sVStewart Hotel 
p75
F0.75785370599135182
sVChelsea Inn - 11th Avenue 
p76
F0.11269999999999999
sVThe Mark 
p77
F0.87649423868312615
s.