(dp1
Vlimited
p2
F0.00012899416956718235
sVall
p3
F-0.00032179878683192935
sVpartial
p4
F-0.0002837711622428442
sVchinese
p5
F-0.00070236416465923625
sVsecondly
p6
F-0.0015410785446667865
sVparticular
p7
F5.0964664181382549e-05
sVwalking
p8
F0.00026200958143131006
sVyellow
p9
F-5.4160168152381813e-05
sVoverly
p10
F-0.00021521389218278481
sVcheerful
p11
F0.00041338796950853495
sVthoughtful
p12
F0.00089890932437502904
sVsleep
p13
F-0.00053779722071123381
sVasian
p14
F-0.00020982223413351273
sVgrateful
p15
F0.00046889655001287016
sVgladly
p16
F-2.0090125274766423e-06
sVgo
p17
F0.00061554667428789648
sVparticularly
p18
F8.5384035805217658e-05
sVoldest
p19
F0.0008797513884047127
sVpoorly
p20
F-0.0014287631206889677
sVcompact
p21
F0.00033148244537952224
sV21st
p22
F0.00015540145606831809
sVcareful
p23
F-0.0003617931453100593
sVyummy
p24
F4.3293143380133091e-05
sVremarkable
p25
F0.0010716970902850224
sVconcerned
p26
F-0.00071787689939273292
sVwhite
p27
F-0.00021046490090610704
sVdisgusting
p28
F-0.017347843900261079
sVliterary
p29
F0.00016231165451167516
sVto
p30
F-0.00014408326963398401
sVfinally
p31
F-0.0011370392652304893
sVunpleasant
p32
F-0.0096778574910945103
sVwhatsoever
p33
F-0.00099521072933601851
sVsmile
p34
F0.00049725689914444495
sVsorry
p35
F-0.0013208680204612648
sVunderground
p36
F0.00048027341783196594
sVfriendly
p37
F0.00017113000001912979
sVthird
p38
F-0.00079820176452070207
sVbrown
p39
F-0.0018329058852433896
sVstocked
p40
F0.0006958147127412394
sVrandom
p41
F-0.0016761052776446655
sVpremium
p42
F-0.00010737695324972206
sVok
p43
F-0.00058181483003335417
sVtastefully
p44
F6.1623389870340021e-05
sVdeli
p45
F-0.00029934836968132175
sVcontemporary
p46
F0.00033001516856681417
sVstreet
p47
F-7.2016900458134756e-05
sVworst
p48
F-0.0038739404131848628
sVsituated
p49
F-0.00013290197545264736
sVsunny
p50
F0.00036136911040849816
sVawful
p51
F-0.0051671365601675028
sVspecific
p52
F-0.00021334135507146044
sVmanageable
p53
F-0.00029901731376111827
sVexact
p54
F-0.00075655129243613244
sVminute
p55
F-0.00013018934553797818
sVcool
p56
F6.3563613001993121e-05
sVtimely
p57
F-4.4553351006431079e-05
sVentire
p58
F-0.00031268999453978744
sVpre
p59
F-0.00086378831392534394
sV17th
p60
F-0.00011684800641501166
sVimpressive
p61
F0.00037493706909324728
sVlevel
p62
F-0.00010057218291466957
sVwooden
p63
F0.00025220030167107327
sVunusual
p64
F6.051058584489018e-05
sVaccidentally
p65
F-0.00020277858689935683
sVlarge
p66
F0.00011609497853487522
sVsubway
p67
F0.00011646602476502333
sVquick
p68
F9.4556442446139385e-06
sVspent
p69
F-0.00016811582524798875
sVstraight
p70
F-0.00059145564508928836
sV20th
p71
F0.00011629252562192092
sVopen
p72
F-0.00025155099145237139
sVsmall
p73
F-0.0002006111788690808
sVsmaller
p74
F-0.00017025175280752439
sVneighborhood
p75
F-5.6080208847889956e-05
sVspecially
p76
F-0.0003557806363841995
sVten
p77
F0.00024699726837069307
sVtired
p78
F-0.00048512937768632324
sVtill
p79
F0.00040187984047367759
sVtea
p80
F3.2916695858209346e-05
sVconsistent
p81
F-0.00026976392898639184
sVsomewhere
p82
F-0.00083808256934466536
sVdirect
p83
F0.00019776680656681837
sVpast
p84
F9.2551228344077982e-06
sVelegant
p85
F0.00057830735678144891
sVlikely
p86
F0.00019531410375021332
sVfabulous
p87
F0.00052565868335593025
sVworn
p88
F-0.0006553947811158814
sVuncomfortable
p89
F-0.0034681284714273811
sV7th
p90
F-7.4284623609168301e-06
sVfurther
p91
F-0.0002568233409900875
sVpretentious
p92
F9.4478886445205053e-05
sVodd
p93
F-0.00039356058023628008
sVcasual
p94
F0.00072124847905305673
sVcosy
p95
F0.00075430409138156813
sVblue
p96
F-0.00010969141511941376
sVstressful
p97
F-0.0005089800304566819
sVsub
p98
F-0.00039454639829441314
sVugly
p99
F-0.0021393256615164558
sVbeaten
p100
F0.00050146884329872732
sVbrief
p101
F2.4626649296872593e-05
sVpleased
p102
F0.0003265088046247178
sVcurrent
p103
F0.00010963830317924496
sVconsistently
p104
F6.9221330837973723e-05
sVindian
p105
F0.00010987734947632709
sVrun
p106
F-0.00052528396127748348
sVabove
p107
F-0.00055461511478809662
sVinternational
p108
F-0.00052120502880712016
sVreluctant
p109
F0.0007212066697618231
sVever
p110
F-0.0005987365745889052
sVplush
p111
F0.00047943733588829107
sVfull
p112
F-0.00037835701539333039
sVunsure
p113
F-0.00043893363383711096
sVcozy
p114
F0.00024161717323870749
sV50th
p115
F9.61913389793952e-06
sVsleek
p116
F0.0004577197543621186
sVapologetic
p117
F-0.0008468400512270241
sVunprofessional
p118
F-0.017035617477440899
sVloose
p119
F-0.0011687216865273681
sVcertainly
p120
F-1.6670432438163066e-06
sVfrench
p121
F0.00015703827256634105
sVunderstanding
p122
F-0.00022968705161879063
sVwater
p123
F0.00057283738700154125
sVslow
p124
F-0.00039432500184631884
sVthem
p125
F-0.0003741884928781437
sVseparate
p126
F-1.7138713573326388e-05
sValone
p127
F-0.00075001428291931582
sValong
p128
F0.00028524291899124346
sVpromptly
p129
F3.5331350739201128e-05
sVpersonable
p130
F4.162007949616895e-06
sVwait
p131
F-0.00011240473967290163
sVdry
p132
F-0.00087034750037653127
sVgreat
p133
F0.00014469031522012599
sVahead
p134
F-0.00066672507890912409
sVluggage
p135
F-0.00093337316144174998
sVbrilliant
p136
F0.00041537448726316762
sV30
p137
F-0.00028165766017397499
sVexceptionally
p138
F0.00019922844084418594
sVunfriendly
p139
F-0.0017845567671129561
sVexperience
p140
F-0.00018409818151980591
sVunfortunately
p141
F-0.00055986408994505605
sVsignificantly
p142
F-0.00056730438201660317
sVprior
p143
F-5.80108763162194e-05
sVwine
p144
F0.000381512886816853
sVsocial
p145
F-0.00020248526239282879
sVexistent
p146
F-0.0007725823407058488
sVconveniently
p147
F0.00012299317081688354
sVnarrow
p148
F-0.00065984837600334303
sVrudely
p149
F-0.0018033072235621762
sVpillow
p150
F0.00026594085127122364
sVgenuinely
p151
F0.00075740543415288623
sVfantastic
p152
F0.00026818635752523003
sVstained
p153
F-0.0018393482358913717
sVsticky
p154
F-0.0027956203989306806
sVsecure
p155
F-0.00026830309214120304
sVfamily
p156
F0.0002950884984593666
sVextra
p157
F-0.00033056687088012791
sVsuddenly
p158
F-0.00087672216123752152
sVapprehensive
p159
F0.00038563869472815705
sVprivate
p160
F-0.00014554495496505143
sVhighly
p161
F0.00034331351610821718
sVmarvelous
p162
F0.0209544545683913
sVvibrant
p163
F0.00028560404871120462
sVguests
p164
F-0.00099419675303537725
sVtrained
p165
F-0.00014266510008618521
sV1st
p166
F0.00016229847276334647
sVrarely
p167
F0.00013278354858604799
sVupgrade
p168
F-0.00069530094189519036
sVhotels
p169
F-0.00039725691346729293
sVuse
p170
F-0.00019297154002314611
sVfrom
p171
F-0.00027494891050876876
sVworking
p172
F-0.00081841700037622205
sViced
p173
F-0.00043540614543830804
sVpositive
p174
F-0.00046864157336902414
sVangry
p175
F-0.0024857216871357292
sVhungry
p176
F0.00016660518670453303
sVvisit
p177
F0.00010721570313259888
sVnegative
p178
F-0.00035070060575663887
sVmemorial
p179
F-8.5265849201688818e-05
sValmost
p180
F-0.00029440822904576306
sVlive
p181
F0.00016609479569119104
sVamenities
p182
F0.00016935305518095368
sVcalm
p183
F0.00036513719160708667
sVgorgeous
p184
F0.00071287148635270476
sV25th
p185
F0.00065899382253528801
sVtype
p186
F0.00015703360694527323
sVminor
p187
F6.8982276548871569e-05
sVmore
p188
F-0.00016885326085628336
sVflat
p189
F-0.00017193324529776006
sVyes
p190
F-0.00035406775802072644
sVsupposedly
p191
F-0.0014944052030623478
sVdoor
p192
F-1.6717352482261989e-05
sVrich
p193
F0.00060680116970801275
sVstrange
p194
F-0.00066881680483767332
sVinitial
p195
F-0.00039053572874990137
sVacceptable
p196
F-0.0012526006167797438
sVapparent
p197
F-0.00094123524878031331
sVsister
p198
F0.00012789496767694555
sVaware
p199
F-0.00054861713229253819
sVdowntown
p200
F0.00031218993648206652
sVindustrial
p201
F0.00026639389959272992
sVprimarily
p202
F-0.00031322160856461019
sVwarm
p203
F0.00029631462661287118
sVeverywhere
p204
F-0.0002077194954208494
sVbasically
p205
F-0.00087497074090942819
sVrubbish
p206
F-0.0019981716437859893
sVexcellent
p207
F0.00017510321645003999
sVcentral
p208
F3.3993887292620465e-05
sVoutdated
p209
F-0.0012724786594403713
sVappointed
p210
F0.00048856293239522971
sVglad
p211
F0.0001897695937986872
sVme
p212
F-0.00071816802427880611
sVtad
p213
F1.0937218771367864e-05
sVroom
p214
F-8.2977495520729079e-05
sVhour
p215
F-0.00013609468557919358
sVcheapest
p216
F-0.00086206449451820574
sVthis
p217
F-0.0010434531225694535
sVsnow
p218
F1.6529327820164993e-05
sVoriginally
p219
F-0.00028519863580464501
sVwork
p220
F-0.00099430392926430655
sVroof
p221
F0.00015977797770960788
sVworth
p222
F-0.00021756058636604654
sVanywhere
p223
F8.1267958953923749e-05
sVobvious
p224
F-0.00097964054253128112
sVthin
p225
F-0.0013234500871835181
sVfollowing
p226
F-0.00080305030021641166
sVcab
p227
F-0.00030413618660775284
sVarrive
p228
F-0.0014185006236148172
sVdidnt
p229
F-0.00059519062497300477
sVmarble
p230
F0.00043512037193704583
sVbeautiful
p231
F0.00044816329375880316
sVnearest
p232
F-9.0772428737774806e-05
sVcrazy
p233
F0.0003409493739330487
sVprompt
p234
F0.0004501076686262641
sVtriple
p235
F-0.00017255413932229014
sVawesome
p236
F0.00019467726943839708
sVin
p237
F-0.00019029606313748505
sVupdated
p238
F-0.00041020414216304084
sVterrible
p239
F-0.0036015045101995642
sVhigh
p240
F0.00011831391161712184
sVreally
p241
F-0.00014406241839016987
sVspa
p242
F0.00069789067857472695
sVchic
p243
F0.00038846734737288239
sVstandard
p244
F-9.9460938947920933e-05
sVindifferent
p245
F-0.0013353029235427102
sVabsolute
p246
F-9.7079989473963942e-05
sVhuge
p247
F-8.8932923935456255e-06
sVneeds
p248
F2.5320492416607931e-05
sVend
p249
F0.0002727413127856296
sVvaried
p250
F0.00027250247229633799
sVawkward
p251
F-0.0011424780208014436
sVkeen
p252
F-0.00011544440131099195
sVfortunately
p253
F8.0040481512411838e-05
sVexceptional
p254
F0.0023981124237683446
sVfunky
p255
F-0.00014908300252390269
sVfortunate
p256
F-0.00010156511982558573
sVlounge
p257
F-0.00014806139289156125
sVfar
p258
F-3.6550013307345345e-05
sVamazing
p259
F0.00046557088294858111
sVish
p260
F0.0016998369161674123
sVsilent
p261
F0.00012108222192188474
sVadjacent
p262
F0.00020268085471743149
sVinstead
p263
F-0.00068343342184811601
sVordinary
p264
F7.1686314429348827e-05
sVunforgettable
p265
F0.00063608551481308083
sVpizza
p266
F7.828285834555115e-06
sVbadly
p267
F-0.0019082424477037197
sVunbelievable
p268
F-0.00070253858282465068
sVunbeatable
p269
F0.00020969355338665318
sVlaundry
p270
F-0.00097863303323013481
sVrude
p271
F-0.0043742180697005093
sVstop
p272
F0.0002549112665620292
sVwonderful
p273
F0.00036040712504880658
sVearlier
p274
F-0.00018986750203607323
sVspot
p275
F0.00010290206666442605
sVdifferent
p276
F-0.0004981174509125785
sVwalk
p277
F0.00024877926978335735
sVpanoramic
p278
F0.00050345337153810546
sVmodest
p279
F1.2438936694692654e-05
sVbirthday
p280
F0.00027181669509814471
sVdesigned
p281
F-0.00029591863644828594
sVfi
p282
F6.9084251268747851e-05
sVtruly
p283
F0.00072463392162419908
sVauthentic
p284
F0.00067922407748244545
sVunbelievably
p285
F-0.00076112141989383598
sVefficiently
p286
F0.00080670638181644134
sVchilled
p287
F-8.2631250872115672e-05
sVno
p288
F-0.00065622515459029225
sVnatural
p289
F4.6527981542398992e-05
sVfriendlier
p290
F-7.3729670978724864e-05
sVeffective
p291
F0.00051234786871967196
sVcrowded
p292
F-9.4908728497930593e-05
sVlight
p293
F-6.0661041425129976e-05
sVsq
p294
F0.00019765296869980875
sVcounter
p295
F0.00028702111228895026
sVovernight
p296
F-0.00034694964138535757
sVanytime
p297
F-0.00030889361859663336
sVso
p298
F-0.00023204628139829114
sVrather
p299
F-0.00029934727068123691
sV18th
p300
F0.00037696084420801721
sVgreen
p301
F-0.00014847065277989421
sVsouth
p302
F0.00024803925509209196
sVclassy
p303
F0.00041233292254732598
sVwelcome
p304
F0.0003383466400404976
sVtall
p305
F-0.00026189909705252954
sVtypical
p306
F6.0188559351206548e-05
sVcute
p307
F-0.00010809000834341404
sVapprox
p308
F-0.0001076486665994292
sVleast
p309
F-0.000679261891236293
sVfurnished
p310
F0.00046355748492681482
sVwelcomed
p311
F0.0013129080813166576
sVindeed
p312
F7.789078641783347e-05
sVover
p313
F-0.00060100183025676567
sVmainly
p314
F-0.00020975121414412771
sVsatisfied
p315
F-2.0275321586973893e-05
sVknowledgable
p316
F0.00056491956529559147
sVfab
p317
F0.00016766742787985219
sVfinest
p318
F0.00081704383022338173
sVthrough
p319
F-0.0012050358111660136
sVresponsive
p320
F0.00012611821611244872
sVbroadway
p321
F0.00030411479438355874
sVcold
p322
F-0.00056929805558015353
sVstill
p323
F-0.00055702461420926855
sVarrogant
p324
F-0.0042412631684068426
sVbefore
p325
F-0.00016008533601685943
sV24
p326
F-7.8909003439606943e-05
sVsuperior
p327
F-0.00027320432057688717
sVstyle
p328
F0.00039161391472147225
sV20
p329
F-0.0001926840472042463
sVfit
p330
F0.0005584712861652825
sVlocated
p331
F-7.8304100349354329e-06
sVpersonal
p332
F0.00039930260464869399
sVinteresting
p333
F0.00027887479419237124
sVexpectations
p334
F7.2550262924687693e-05
sVactually
p335
F-0.00069133415369462684
sVbetter
p336
F-0.00039361310189790842
sVmaid
p337
F0.00010087301173997224
sVwindow
p338
F-0.00074413192613430768
sVoccasionally
p339
F-0.00034641004853557965
sVunderstated
p340
F0.0010345281850299094
sVspacious
p341
F0.00028676059961463637
sVfriendliest
p342
F0.00044664875587646489
sVpenn
p343
F-0.00029852076038528933
sVhidden
p344
F0.00024229077542628594
sVholiday
p345
F-0.00039845115336242982
sVeasier
p346
F3.1820311800660273e-06
sVinstantly
p347
F0.002454109805145926
sVeventually
p348
F-0.0013195854491483538
sVcoffee
p349
F-0.00025624184315395696
sVevening
p350
F4.4348802922254986e-06
sVfourth
p351
F-0.00025834911063448438
sVdim
p352
F-0.00056258274019973663
sVfood
p353
F-0.00022919838465543897
sVsimilar
p354
F-0.00030287477437779806
sVlargest
p355
F0.0001947292171635318
sVslight
p356
F-0.00028979843681739071
sVshuttle
p357
F-0.0017066404097997869
sVhalf
p358
F-0.00068616239140583801
sVfront
p359
F-0.00037004759003736269
sVnow
p360
F-0.00020939947501063096
sVday
p361
F6.9384787277442482e-06
sVbigger
p362
F-0.00029404750156706482
sVeasily
p363
F2.1904682796704267e-05
sVseveral
p364
F-0.00016279793808914587
sVname
p365
F-0.00061228455442425146
sVregularly
p366
F0.00027336982544904725
sValways
p367
F0.0001130750916516487
sVreasonably
p368
F0.00010201777775448932
sVweary
p369
F0.00011897854981540929
sVdingy
p370
F-0.0013346648205048157
sVdelightful
p371
F0.00063814165547678196
sVspotless
p372
F0.0002767517668291992
sVreasonable
p373
F1.8420053237428846e-05
sVentirely
p374
F-0.00051969283528692696
sVdifficult
p375
F-0.00028048951639112884
sVside
p376
F0.00014341622797035526
sVexquisite
p377
F0.019625952590644015
sVheavy
p378
F-2.5623127202134793e-05
sVen
p379
F-0.00043211362788076965
sVfinancial
p380
F-4.1127378957493818e-05
sVdelicious
p381
F0.00073163105088381089
sVindependent
p382
F-0.0002129520042221184
sVhouse
p383
F-0.00073469217368786889
sVhard
p384
F-0.00026979095893931966
sVtip
p385
F2.073696299102572e-05
sVused
p386
F-0.00076627697696323111
sVuptown
p387
F0.00054990985597852451
sVsuite
p388
F-1.4584238845355001e-05
sVokay
p389
F-0.00070740104012972232
sVsummary
p390
F-0.00028445116278493475
sVadequately
p391
F0.00019625575891215599
sVspecial
p392
F0.0004166178325740816
sVout
p393
F-0.00031052458101522233
sVliving
p394
F0.00054316209253267513
sVultimately
p395
F0.00037848988434865971
sVenjoyable
p396
F0.00018005507741404022
sVspace
p397
F0.00041561410393305869
sVmiss
p398
F-0.00027624133896045117
sVboutique
p399
F0.00030599066948234799
sVre
p400
F-0.00082954137554652437
sVseriously
p401
F-0.0017436234452941723
sVsuperbly
p402
F0.00072270444636571784
sVrare
p403
F0.00058825076603558112
sVwide
p404
F-0.00026480490811111598
sVinternet
p405
F1.4854347287487088e-05
sVheavenly
p406
F0.016585742047180232
sVnewly
p407
F3.1509669997006103e-05
sVshortly
p408
F-0.00040024483228704035
sVissue
p409
F-0.00028461619689378655
sVcorrect
p410
F-0.00086109153309216267
sVred
p411
F-0.00042047533191258521
sVuber
p412
F0.00073151123126079091
sVipod
p413
F-0.00036370380268886269
sVfree
p414
F-8.7441644274773673e-06
sVlike
p415
F-0.00039682344815486579
sVpleasant
p416
F3.7083151055638576e-05
sVextraordinary
p417
F-0.00035713924031893882
sVcompletely
p418
F-0.00080676944923695356
sVnecessarily
p419
F5.4566143839274725e-05
sVsurely
p420
F-0.00044536203858266715
sVconditioning
p421
F-0.00086027036758919812
sVpractically
p422
F-0.00045260342554726327
sVwall
p423
F0.00041583900904687879
sVrenovated
p424
F-0.00066681542600180389
sVonsite
p425
F0.00012103174989962651
sVscary
p426
F-0.0012537267826010234
sVenormous
p427
F0.00093626306910276746
sVservice
p428
F-8.3532674018470905e-05
sVcourteous
p429
F0.00022378276475368709
sVinexpensive
p430
F-0.00040770738817456697
sVdays
p431
F-0.00023878539744180244
sVbritish
p432
F-0.00037352860097718195
sVhonest
p433
F-0.00038556217575620244
sVchilly
p434
F-8.1719688616640795e-05
sVamerican
p435
F2.2298957999725686e-05
sV4th
p436
F-2.4181842126254761e-05
sVplace
p437
F-0.0004951976378923834
sVmassive
p438
F0.00021412730201480156
sVloud
p439
F-0.00088878493843149874
sVtop
p440
F0.00029663813869380812
sVfrequent
p441
F0.00016896344463280388
sVfirst
p442
F-0.00028078921513270932
sVcheese
p443
F0.00029093403808856156
sVmajor
p444
F-9.0656873116592637e-05
sValready
p445
F-0.0003892483866761899
sVdont
p446
F-0.00095165452377054193
sVupper
p447
F1.9871338829738545e-05
sVattractions
p448
F1.4389574601468037e-05
sVwebsite
p449
F-0.00077032258184234247
sVpowerful
p450
F-4.2426680533110093e-05
sVfancy
p451
F0.00011084124151786683
sVone
p452
F-2.7019804274312385e-05
sVclear
p453
F-0.00039614749938320266
sVunexpected
p454
F0.00018454491990387175
sVdone
p455
F-0.001524722930293932
sVapproximately
p456
F-0.0012857598746325103
sVdirectly
p457
F-0.00043007184344013991
sVsuch
p458
F-0.0001648360579990638
sVmiserable
p459
F-0.0016747239267593012
sVimpossible
p460
F-0.00062191903762958735
sVthick
p461
F0.00036887342750759706
sVelectronic
p462
F0.00045885195530363907
sVsize
p463
F-0.00018019192447976142
sVcity
p464
F-0.00037173183067326036
sVlittle
p465
F1.9504417118375154e-05
sVlong
p466
F-0.00055946578334246651
sVsadly
p467
F-0.0013229106076796311
sVguest
p468
F0.00015500079229812823
sVquality
p469
F0.00055613891936975835
sVsimilarly
p470
F0.00024247889423695902
sVfilthy
p471
F-0.0076026064738401603
sV5th
p472
F-0.00066159089575504467
sVcomfy
p473
F5.7129958597542004e-06
sVelevator
p474
F-0.0009862695574015029
sVplastic
p475
F-0.001271453477974908
sVplentiful
p476
F9.3603832591253745e-05
sVneeded
p477
F0.00022695263790979488
sVstation
p478
F-0.00037448294432831973
sVsteep
p479
F-0.00042591549096189849
sVtoo
p480
F-0.00025914166294292886
sVtouristy
p481
F8.6581719713359564e-05
sVairy
p482
F6.3152797688165868e-05
sVinconvenient
p483
F-0.00060167127514179001
sVperfectly
p484
F0.0001252614425168413
sV40th
p485
F-0.00035627537308605627
sVfinal
p486
F-0.00074282135061470682
sVlow
p487
F-0.00056124948127432572
sVurban
p488
F7.1799034887434516e-05
sVwarmly
p489
F0.00071995852053492022
sVworse
p490
F-0.0020894339785508982
sVmostly
p491
F-0.00028034843959382904
sVthat
p492
F-0.00058715623114523113
sVhappily
p493
F0.00017391105481741695
sVgym
p494
F0.0010978710431870501
sVexactly
p495
F-6.2641541524546449e-05
sVimmediate
p496
F0.0001324993974523924
sVjapanese
p497
F0.00014567954053305865
sVapproachable
p498
F-0.00063186668480418062
sVforward
p499
F0.00027141983185576625
sVluckily
p500
F-0.00089957298387802057
sVridiculous
p501
F-0.0011079754503401928
sVsomewhat
p502
F0.00014865520354944567
sVquirky
p503
F0.00048229696022268777
sVoff
p504
F-0.00078031123646110927
sVoverwhelming
p505
F-3.6885568699311774e-05
sVappreciated
p506
F-9.0814197276879228e-05
sVupdating
p507
F-0.00045172345351851865
sV11
p508
F-0.0012338168923851113
sVdistance
p509
F-0.00024676708721280399
sVkind
p510
F-0.0004554480026707935
sV12
p511
F-0.00062509620846456474
sV15
p512
F5.3953921797405689e-05
sVkindly
p513
F2.3950241716926978e-05
sVfrankly
p514
F-0.0016102689862233601
sVdouble
p515
F-0.00038622043245363291
sVolder
p516
F-0.00019866886222721269
sVimpersonal
p517
F0.0005971854937523287
sVsecond
p518
F-0.00032711799605208698
sVbed
p519
F-0.00038317711167117552
sVoutrageous
p520
F0.00070775546020527289
sVmidtown
p521
F0.00056547965738351841
sVfuture
p522
F0.00015780080325716151
sVsilly
p523
F0.00015098617443886004
sVhistorical
p524
F0.00071269049600609057
sVmaybe
p525
F-0.00066008195425799421
sVsurprisingly
p526
F8.630743133145925e-06
sVbare
p527
F-0.0010026795120069221
sVstale
p528
F-0.0027470841582047946
sV10th
p529
F0.00012438597181365914
sVrestful
p530
F4.6021961398136813e-05
sVand
p531
F-2.7411088434307158e-05
sVcleaner
p532
F-0.0022231426650975244
sVfalse
p533
F-0.00069736516975227802
sVnicer
p534
F-0.00063201666016737563
sVoutstanding
p535
F0.00046047046480831861
sVmodern
p536
F0.00022123448416064967
sVtidy
p537
F-7.3358211668963374e-05
sVfew
p538
F-9.6686825045519224e-05
sVcomfortable
p539
F0.00018905375294405135
sVquietest
p540
F-0.00015165076131563735
sVmedical
p541
F-0.00023117183689359833
sVcomfortably
p542
F0.00090745677154649461
sVcleaned
p543
F-0.00034478236970175713
sVbreakfast
p544
F5.4850277811910471e-05
sVturn
p545
F-7.7861177029308237e-05
sVapparently
p546
F-0.00082369868120477606
sVclearly
p547
F-0.001328163998938571
sVcomplete
p548
F-0.00011373436042825473
sVunbearable
p549
F-0.0012019348040824885
sVquieter
p550
F0.00012192849656433722
sVafraid
p551
F-0.0018048474712600154
sVgenuine
p552
F0.0080054417568617038
sVonce
p553
F-0.00014790923981275808
sVefficient
p554
F0.00029651396375679972
sVconvenient
p555
F-7.2602577566954231e-05
sVself
p556
F-0.00019067503996269186
sVable
p557
F-0.00017234785347511387
sVaside
p558
F-0.000708781294476301
sVthorough
p559
F-0.00074024205776085979
sVcouch
p560
F-0.00027801400983360619
sVlit
p561
F0.00033894389623810703
sValso
p562
F-0.00010391829523113451
sVideal
p563
F0.00018014083579242829
sVinternal
p564
F-6.8916337421734029e-05
sVdefiantly
p565
F0.0011985336613436173
sVrepeatedly
p566
F-0.0015695305787806904
sVonline
p567
F-0.0006467986354596032
sVinterior
p568
F-4.3290055603919392e-05
sVhonestly
p569
F-0.00041238465465057909
sVkorean
p570
F-0.00012311527533193523
sVtourist
p571
F0.00011726972341453393
sVeven
p572
F-0.00046618360896275501
sVserene
p573
F0.00029478019471778136
sVadded
p574
F0.00038997139386243233
sVmultiple
p575
F-0.00035124063247539552
sVelectric
p576
F-0.0003157669547477922
sVtheatre
p577
F0.00014769334150540535
sVnormal
p578
F3.2157300350576113e-05
sVprice
p579
F0.0001146164989873818
sVswiftly
p580
F-0.00049478018469480015
sVhealthy
p581
F0.00044359141395297868
sVbuffet
p582
F0.00038943801326626535
sVmost
p583
F3.3069442674333541e-06
sVregular
p584
F9.521864825695614e-05
sVimportantly
p585
F0.00089140782319305884
sVplenty
p586
F0.00023683525256742614
sVnothing
p587
F-0.0016437106877131269
sVsophisticated
p588
F0.00080347690101578804
sVextremely
p589
F-0.00011331182183016062
sVunavailable
p590
F-0.0015170324542994437
sVforever
p591
F-0.00029078944271330651
sVespecially
p592
F0.00024947588823785662
sVsurprising
p593
F-0.0003000360619242073
sVstylish
p594
F-0.000166361048814027
sVenthusiastic
p595
F0.0010563326898824399
sVlater
p596
F-0.00077139908156563107
sVupset
p597
F-0.0034498452026392326
sVdog
p598
F7.2803432641864257e-05
sVtraditional
p599
F-3.5883116844161254e-05
sVdefinitely
p600
F0.00018684453990284875
sVclean
p601
F-5.919934278078836e-05
sVnyc
p602
F-0.0001517453178615417
sVprofessional
p603
F0.00029786022470482002
sVleft
p604
F-0.00024886895192115254
sVnormally
p605
F1.2706785751666555e-05
sVwow
p606
F-9.9791374208240357e-05
sVfussy
p607
F0.00033261087072352887
sVatmosphere
p608
F0.00013067331750871148
sVhumid
p609
F0.00036311651765260733
sVoverpriced
p610
F-0.00024797341813593827
sVexclusive
p611
F0.00015391862386681537
sVplease
p612
F-0.0011299462084027904
sVqueen
p613
F-0.00013204603771958416
sVcheap
p614
F-0.00063628641611705738
sVanyway
p615
F-0.00015135723697704841
sVanniversary
p616
F0.00079190500134909106
sVpurely
p617
F-9.1243708865099181e-05
sVbright
p618
F-7.9259181355350585e-05
sVinconsistent
p619
F-0.00064566503462401711
sVbedroom
p620
F0.00016287457360735931
sVcarefully
p621
F-4.3107099753752261e-05
sVrough
p622
F-0.0012504864323028531
sVsuperb
p623
F0.00045838673121465303
sVfine
p624
F-0.00033773700587725404
sVenjoyed
p625
F6.7842396169466351e-05
sVfifth
p626
F2.6110277341356511e-05
sVstaff
p627
F3.3610228182910445e-05
sVunhelpful
p628
F-0.0071292515428064548
sVgiant
p629
F-0.00048628040879119654
sVbusy
p630
F6.5868573910134545e-05
sVquaint
p631
F8.8003714053877459e-05
sVnervous
p632
F-0.00060174658314380105
sVless
p633
F-0.00028410849319402656
sVoutside
p634
F-0.0001297357020652568
sVunhappy
p635
F-0.013348521973111352
sVshort
p636
F-2.6743161144929511e-05
sVupstairs
p637
F-0.00075011512519674011
sVking
p638
F0.00025262188211981954
sVonly
p639
F-0.00033586322989334193
sVunable
p640
F-0.0014624702617178874
sVblack
p641
F-0.0010068849911112007
sVpretty
p642
F-0.00034383053893679812
sVequipped
p643
F0.00018819407832404566
sVvarious
p644
F-0.00013099007393069608
sVadequate
p645
F8.308938250406689e-05
sVroughly
p646
F-0.0010449613549171832
sVlocal
p647
F0.00026739216184535372
sVlaptop
p648
F-0.00019219531481016658
sVcentrally
p649
F0.00026704453903835261
sVhip
p650
F0.00023761047118426974
sVdo
p651
F-0.0012268367912848315
sVclosed
p652
F-0.00070736149914630132
sVstay
p653
F0.00013504014050316499
sV10
p654
F-6.6012676687360284e-05
sVbeat
p655
F2.3111327727401074e-06
sVfamiliar
p656
F0.0007401243884022832
sVhorrible
p657
F-0.0048639708031846312
sVoverall
p658
F-0.00020533113108392058
sVlucky
p659
F-1.1438975249043965e-05
sVpreferred
p660
F0.00041218453237099419
sVcheaper
p661
F-0.0002633781354446171
sVfamous
p662
F0.00029354657196286791
sVnearly
p663
F-0.00068757129856474703
sVnew
p664
F-0.00017993202535883097
sVconfortable
p665
F-0.00023055393432774054
sVnasty
p666
F-0.013588493375487256
sVendless
p667
F0.001129309279025902
sVprime
p668
F-5.3608001174000803e-05
sVbar
p669
F6.9690121981522992e-05
sVsmoking
p670
F-0.00060849615788237236
sVnicely
p671
F-5.4767394492894188e-05
sVbusiest
p672
F0.00022323032188568091
sVpublic
p673
F-0.00014073433509627093
sVtwice
p674
F-0.00030745768648830969
sVbad
p675
F-0.0019444017717440206
sVcommon
p676
F-0.00042786598504366381
sVthough
p677
F0.00029561549404349702
sVwish
p678
F-0.00070137297529484209
sVfixed
p679
F-0.00023066821342112946
sVautomatic
p680
F0.00011363108853617795
sVview
p681
F-0.00022888710110999651
sVaffordable
p682
F8.9350410169064596e-06
sVart
p683
F0.00066646689500824872
sVfair
p684
F-0.00053720409870362481
sVhigher
p685
F-0.00012477957072510747
sVsmooth
p686
F0.00022737630533227709
sVfluffy
p687
F0.00014764727652125304
sVnotice
p688
F-0.00011270413170163461
sVrelative
p689
F-0.00026105091544712439
sVindividual
p690
F-0.00057361257375084071
sVasleep
p691
F-0.0011814973879996542
sVdesperate
p692
F-0.0011461761887369293
sVhorrendous
p693
F-0.020673279417213707
sVclose
p694
F7.2033030909971786e-05
sVpurified
p695
F-0.00011903383170856286
sVbest
p696
F0.00045228832342382084
sVcloser
p697
F-0.0002851885981886937
sVshower
p698
F-0.00024321955976047422
sVpotential
p699
F0.0014490959717842703
sVimmaculately
p700
F0.00061287614320457943
sVaway
p701
F6.0463633163193066e-06
sVcurrently
p702
F-0.00017644124163409002
sVdefinite
p703
F-0.00058299266040994283
sVcontinually
p704
F-0.00027656249923809883
sVenough
p705
F-4.0967015165802685e-06
sVsmallest
p706
F-0.00095421110949155043
sVterribly
p707
F-0.00071078683569094736
sVcorrectly
p708
F0.00014370498774483864
sVhopefully
p709
F-0.00013726209317665181
sVweird
p710
F-0.00080375755716347638
sVprobably
p711
F-0.00042331831988961773
sVroomy
p712
F0.00036983917809401226
sVnumerous
p713
F-4.7826097134001959e-05
sVemail
p714
F-0.0015588795307100822
sV15th
p715
F0.00016380333490069947
sVthoroughly
p716
F0.000173723277463722
sVarrival
p717
F-0.00050153091984888036
sVperfect
p718
F0.00028492631542280698
sVcomparable
p719
F-0.0006277467346098417
sVnever
p720
F-0.00069023981277532842
sVrecently
p721
F4.5887669149027573e-05
sVtricky
p722
F-0.00042059548592331521
sVuseful
p723
F-0.000136484896036767
sVcomplementary
p724
F-0.00014050255283136714
sVinitially
p725
F-0.00021139229949397717
sVscreen
p726
F8.8070361583520167e-05
sVweak
p727
F-0.00048651586520620689
sVhowever
p728
F-0.00044042374223275996
sVwi
p729
F3.5136148887711795e-05
sVotherwise
p730
F-0.00031476602756962352
sVwilling
p731
F-3.5460808534340028e-05
sVhere
p732
F-0.00018650512598813101
sVkey
p733
F-0.00054683018066522182
sVcompetent
p734
F0.00041038358670392671
sVrooftop
p735
F0.00051178123831420778
sVtimes
p736
F0.00072816204360007133
sVtaxis
p737
F-0.00058578302938544057
sVtotal
p738
F-0.0010440422038336822
sVessentially
p739
F-0.00017138927589735085
sVinstant
p740
F-0.00023860581265489701
sVrestaurant
p741
F0.00036450363481150107
sVmoney
p742
F-0.0010331194096690039
sVmany
p743
F-7.9222138859608919e-05
sVill
p744
F-0.0010984081812901358
sVbarely
p745
F-0.0013916062303010502
sVquiet
p746
F0.00012634678128330931
sVetc
p747
F-0.00024436899145068508
sVtour
p748
F0.00010433656727147069
sVloudly
p749
F-0.0010981033049194749
sVdated
p750
F-0.00043793119594190465
sVquite
p751
F-0.00010798477093665885
sVsafely
p752
F0.00045995090464411048
sVcon
p753
F-0.00076009771167575104
sVupgraded
p754
F-0.00020712521925317064
sV30th
p755
F0.0004281022790164725
sVexemplary
p756
F0.017130168095140258
sVvery
p757
F-5.7366586601799788e-05
sVprepared
p758
F-0.00030604878106151436
sVmini
p759
F-0.00012496884850108947
sVsimple
p760
F-2.408116033011823e-05
sVsweet
p761
F9.5543297398881905e-05
sVvast
p762
F-0.00018809084283497832
sV2nd
p763
F-1.1132138069753995e-05
sVactive
p764
F-0.00040922541427632807
sVmaintained
p765
F0.00012028318797692718
sVnon
p766
F-0.00061602266741165278
sVnoisey
p767
F-0.00034595929309955836
sVexpensive
p768
F-0.0001179260954323194
sVlate
p769
F-0.00024146856077401501
sVbathroom
p770
F-0.00011263940238910797
sVstrong
p771
F-0.00042986723838594782
sVtremendous
p772
F0.020681785932832267
sVdecent
p773
F-0.0003615127895736212
sVinclusive
p774
F-0.00046191942970284593
sVdue
p775
F-0.00044252383983253945
sVtiny
p776
F-0.0007695655377533779
sVquickly
p777
F-6.247224734506581e-05
sVsecret
p778
F0.00059588759758536847
sVmuch
p779
F-0.00015906908479357664
sVwest
p780
F-5.7034216447665587e-05
sVbasic
p781
F-0.00060084157483564053
sVexpected
p782
F-0.00047434997740593873
sVflexible
p783
F-0.00012330854797781935
sVintrusive
p784
F0.00086347795864095381
sVlovely
p785
F0.0002693207515456009
sVhardly
p786
F-0.00062898808554824397
sVempty
p787
F-0.00057135044442843848
sVlocation
p788
F-0.00027180167874564585
sVfirm
p789
F0.00045145240422052606
sVpremier
p790
F-0.00019840840191781149
sVgeneral
p791
F-0.0003049771523909331
sVloft
p792
F6.2208365518709224e-05
sVrelaxing
p793
F0.00083484451720277492
sVwith
p794
F-0.00088417152519129746
sVsufficient
p795
F0.00023982393399568723
sVhomely
p796
F0.016616592919959962
sVelse
p797
F-0.00060913370217965306
sVpricey
p798
F0.00015051569871474328
sVspecifically
p799
F-0.00071313040826121159
sVpersonally
p800
F0.00018068825815355444
sVlast
p801
F-0.00016762382853457763
sVattentive
p802
F0.0005189289847737996
sVformer
p803
F4.1693521641282289e-05
sVpresent
p804
F-0.00025471929046855273
sVgracious
p805
F0.00033009834134499656
sVsound
p806
F-0.00025074341358510854
sVmain
p807
F7.4822243787865e-05
sVwelcoming
p808
F0.0003141832648132353
sVmetro
p809
F-0.00023076779236165759
sVwonderfully
p810
F0.00049230474042155929
sVsolid
p811
F-1.6406962094447843e-05
sVplain
p812
F-0.0010779748926234758
sVreliable
p813
F3.899214043424779e-05
sVaccommodating
p814
F0.00025427766672287544
sVsingle
p815
F-0.0002561521774874368
sVprofessionally
p816
F-3.1904133816311789e-05
sVair
p817
F-0.00098257046106185546
sVsometimes
p818
F3.9634197770580925e-05
sVdusty
p819
F-0.0019045392862570619
sVnear
p820
F-9.8931507968040263e-05
sVsubstantial
p821
F0.00037120502284407168
sVneat
p822
F8.5372999024914723e-05
sVsurprised
p823
F-0.00051469486671040787
sVfun
p824
F-0.00014537026881138529
sVultra
p825
F0.00078197455191661262
sVfrustrating
p826
F-0.001547307146650752
sVridiculously
p827
F-0.00097111535167780844
sVannual
p828
F-0.00013001680205551822
sVcostly
p829
F0.0005380747624440231
sVthen
p830
F-0.0007868232497871201
sVchaotic
p831
F0.00038386058361409062
sVsincere
p832
F0.0011669611172461557
sVthus
p833
F-0.00027271442600270443
sVit
p834
F-0.00051796579200090974
sVdisappointing
p835
F-0.00063868620636028722
sVmiddle
p836
F-0.00095116186405125942
sVcant
p837
F-0.00012125886238918574
sVgood
p838
F-7.2842056914431601e-05
sVupscale
p839
F0.00017213377594836284
sVexterior
p840
F-0.000331026982336035
sVbeautifully
p841
F0.00061217067641759109
sVready
p842
F-0.00036657662060317342
sVdoorman
p843
F-0.00032142776737157904
sVusually
p844
F-2.852279489112125e-05
sVeveryday
p845
F-0.00045810997779465769
sVgenerously
p846
F0.00049499911119003665
sVfunny
p847
F-0.00026657533435663994
sVcommunal
p848
F-0.00061970723700371792
sVannoying
p849
F-0.00029079369941442028
sVspectacular
p850
F0.002741230034798882
sVanymore
p851
F-2.5967419450313462e-05
sVsensitive
p852
F-0.00055723512320936242
sVperhaps
p853
F-0.00033019860713209273
sVmake
p854
F0.0003890835997731608
sVsame
p855
F-0.00048757257846729417
sVbottled
p856
F-4.2286583159324752e-06
sVpatient
p857
F0.00046618991415145017
sVvirtually
p858
F0.0005327890628820754
sVunfortunate
p859
F-0.00098187421985871347
sVgrand
p860
F0.00021424396193240545
sVeclectic
p861
F0.0011089565406363509
sVfiltered
p862
F3.5236213497209968e-05
sVrelatively
p863
F8.8884589182869822e-05
sVupbeat
p864
F-2.9990198456446076e-06
sVeuropean
p865
F5.0576209638710456e-05
sVweek
p866
F-0.00025558698560069061
sVfairly
p867
F-0.000196633447281794
sVextended
p868
F8.7906353128834396e-05
sVclosest
p869
F0.00064744634128315753
sVimpeccably
p870
F0.00044030111748425039
sVdefinately
p871
F-2.4893693174731976e-05
sVupon
p872
F-0.00045765447956021103
sVrainy
p873
F-6.1569597214620781e-06
sVhand
p874
F0.00071495102770463732
sVnightly
p875
F0.00041895198257736716
sVaverage
p876
F-0.00033994383560565275
sVdecently
p877
F-0.00039592616281448342
sVnights
p878
F-0.00040700367227967721
sVcleaning
p879
F-0.00099424606590001381
sVfrequently
p880
F0.00018532950427095738
sVimpeccable
p881
F0.00073127389099691834
sVtotally
p882
F-0.00075078339693059634
sVlobby
p883
F-0.00010780885903132316
sVpleasantly
p884
F0.00012171403795723602
sVearly
p885
F-0.00018751989445413389
sVlower
p886
F3.3678025080265757e-05
sVspotty
p887
F0.00025984731843300252
sVkept
p888
F-1.768141822861062e-05
sVpicky
p889
F-0.00047075730682995297
sVlargely
p890
F-2.2808608157847137e-05
sVwhole
p891
F-0.00063382030059241543
sVincredible
p892
F0.00052391914563025012
sVwell
p893
F0.00013762544582871661
sVmagical
p894
F0.019266668061527131
sVobviously
p895
F-0.00065777285330182768
sVpriced
p896
F-8.2108407591817347e-05
sVgreatest
p897
F0.00076567300985250718
sVenglish
p898
F-0.0016304240620090399
sVfirstly
p899
F-0.0010509639104812484
sVthe
p900
F-0.00024973659219071278
sVnearby
p901
F-2.4057760269544765e-05
sVcorporate
p902
F0.00067376901180511359
sVlatest
p903
F0.00094027089601012373
sVtaxi
p904
F0.00036705190860167807
sVnext
p905
F-0.00028210528444442244
sVworld
p906
F0.00032077139731161717
sVoutdoor
p907
F0.0003262242789561536
sVexcessive
p908
F-0.00044520868774269829
sVjust
p909
F-0.00026778588256693033
sVheavily
p910
F-0.00092622216822374069
sVtrue
p911
F0.00040470020685255909
sVknowledgeable
p912
F0.00034322968982118104
sVaccurate
p913
F-0.00012935741195364012
sVweekend
p914
F-0.00056182433804589948
sVyoung
p915
F-0.00028592271391772922
sVcompetitive
p916
F-0.00043869644063493796
sVmid
p917
F5.8452074058002314e-05
sVnot
p918
F-0.00054574887100424635
sVrooms
p919
F-0.00010737514354057444
sVhuman
p920
F-0.0015329081855250419
sVadvertised
p921
F-0.00041655985982967094
sVtouch
p922
F0.00021684599465958984
sVtough
p923
F-0.00048908954405509487
sValternative
p924
F-0.00015781968896425177
sVyet
p925
F-0.00014752813489228318
sVprevious
p926
F-0.00030676671645400071
sVterrific
p927
F0.00012517905514443378
sVgenerous
p928
F0.00044143976863891739
sVspotlessly
p929
F0.00025318893035955481
sVthankfully
p930
F-0.00078900585121814367
sVny
p931
F0.00014841274697347066
sVresidential
p932
F0.00018345275372223227
sVsky
p933
F0.00026103736760343959
sVrecommended
p934
F0.00058428414194293225
sVhandy
p935
F0.00012022806051144313
sVeager
p936
F0.00044059475343778882
sVinterested
p937
F-2.6792362020582874e-05
sVattractive
p938
F0.00011935819015802644
sVeasy
p939
F0.0001712015721958867
sVwet
p940
F-0.00025694802819213255
sVextensive
p941
F0.00019227630834356142
sVeast
p942
F2.5813691802734149e-05
sVexcited
p943
F-0.00044695312850416937
sVsmart
p944
F0.00046143913526649019
sVuseless
p945
F-0.0021752742672701622
sVreal
p946
F9.2071719356468049e-05
sVnoticeable
p947
F-0.00094523311438582359
sVaround
p948
F-9.6834345860476395e-05
sVample
p949
F0.00035762999993276196
sVturndown
p950
F0.00017550708906848272
sVbig
p951
F-7.1366451037200651e-05
sVcouple
p952
F-0.00021781802439654766
sVunlimited
p953
F0.00023309134477710573
sVpossible
p954
F-0.00044982381231992651
sVdark
p955
F-0.00062302066521054654
sVpossibly
p956
F-0.0006506535048133766
sVhistoric
p957
F0.00039782855645871523
sVfive
p958
F3.8735982828123574e-05
sVusual
p959
F-8.4952061766395176e-05
sVpolitely
p960
F-0.0010735659966667375
sVdesk
p961
F-0.00058257785323050104
sVimmediately
p962
F-0.00029859266991442664
sVbit
p963
F-2.037368495164376e-06
sVunique
p964
F0.00069971023232205491
sVdisappointed
p965
F-0.00045421059060844185
sVpersonalized
p966
F0.019920362822830041
sVapart
p967
F-0.00042572817273356996
sVnecessary
p968
F-0.00046207825431946749
sVhelpful
p969
F7.5220733041739751e-05
sVinviting
p970
F0.0007271890511062831
sVsincerely
p971
F-0.0010287660626776805
sVsofa
p972
F-0.0012289329869745445
sVhotel
p973
F-0.0001072590181312849
sVtwin
p974
F6.414735892972109e-05
sVoddly
p975
F-0.0016308556213142176
sVsized
p976
F0.00042845415251817624
sVinformative
p977
F0.00060317394398451808
sVown
p978
F-0.00035956916440359806
sVeither
p979
F-0.00099895524143337995
sVfully
p980
F-0.00029709703320951225
sVpopular
p981
F8.9564397005834279e-05
sVsimply
p982
F-3.2711176758724349e-05
sVsoft
p983
F0.00010111290574876569
sVessential
p984
F0.00073455376470723567
sVtwo
p985
F0.00015611596596377107
sVitalian
p986
F0.00034295087216158792
sVaccessible
p987
F0.00017798494163417835
sVsatisfactory
p988
F-0.00025761580942610822
sVright
p989
F-4.1339007189112361e-05
sVold
p990
F-0.00051291015882195493
sVoften
p991
F0.0001836231573392143
sVpeople
p992
F-0.00024476700835121123
sVabsolutely
p993
F-0.00011785610701479227
sVmagnificent
p994
F0.01146932265873025
sVback
p995
F-0.00019782492534045149
sVdead
p996
F-0.0022219849969104268
sVunnecessary
p997
F0.00029812247845701224
sVseating
p998
F0.00042186394226739722
sVsure
p999
F-0.00015363694258944721
sVwarmer
p1000
F-0.00017815473769155335
sV28th
p1001
F0.00033562827732585388
sVtable
p1002
F2.8529493676654634e-05
sVproper
p1003
F-0.00043979482549378994
sVhome
p1004
F0.00025262880570915767
sVstuffy
p1005
F-3.481373165276113e-05
sVlibrary
p1006
F-0.00028462216368914828
sVgross
p1007
F-0.012318665674689708
sVsmallish
p1008
F1.5619408457917202e-05
sVfor
p1009
F0.00012094182927755901
sVbottom
p1010
F-0.00098481714345094624
sVpet
p1011
F3.0070349818756199e-05
sVliterally
p1012
F-0.00055718421030328321
sVhighest
p1013
F0.00052231387058191965
sVopposite
p1014
F-0.00023657537395419442
sVmad
p1015
F-0.00089224059432581413
sVextensively
p1016
F-0.00066146379898287752
sVice
p1017
F-1.2811544837657788e-05
sV14th
p1018
F0.000490788838262971
sVwrong
p1019
F-0.0024813707598095197
sVeverything
p1020
F0.00043958724698940274
sVrefundable
p1021
F-0.0016202626228927681
sVclaustrophobic
p1022
F-0.0013145627505342932
sVreadily
p1023
F0.00044115857664868283
sVminimal
p1024
F3.7157593823203836e-05
sVyounger
p1025
F1.2685120607626226e-05
sVnoise
p1026
F-5.7427269545409082e-05
sVeating
p1027
F-9.6565278102612155e-05
sVbusiness
p1028
F0.0010713737719677263
sVintimate
p1029
F0.00046106169301385515
sVsixth
p1030
F-0.00025560159175630801
sVnight
p1031
F-0.0002866261003616006
sViconic
p1032
F0.0013151672179166445
sVstellar
p1033
F-0.00013690084524369672
sVbroken
p1034
F-0.0015018294556998109
sVnowhere
p1035
F-0.001566071048722502
sVhectic
p1036
F6.1646326664014902e-05
sVhospitable
p1037
F0.00016432551396313485
sVmemorable
p1038
F0.00046337597405950295
sVtherefore
p1039
F-0.00034470305508160293
sVexciting
p1040
F8.6142927195143135e-07
sVsuper
p1041
F6.3043189088245915e-05
sVby
p1042
F-0.00022140748575642542
sVnoisy
p1043
F-0.0004658572193843789
sVon
p1044
F-0.00012110590278384978
sVabout
p1045
F-0.00037966545168518031
sVactual
p1046
F-0.00012984050959909067
sVhousekeeping
p1047
F-0.00016904526998585045
sVanything
p1048
F0.00019671074115792009
sVoh
p1049
F-0.00062968894721280862
sVof
p1050
F5.5146470346437528e-05
sVfavorite
p1051
F0.00035765353406366188
sVhot
p1052
F-0.00048020661352937645
sVpractical
p1053
F-0.00033444397957079554
sVdinner
p1054
F0.0004389131847565991
sVplus
p1055
F-0.00046972653508198746
sVgreatly
p1056
F-0.0001003740935772245
sVtogether
p1057
F-0.00071176533318609335
sVmixed
p1058
F-0.00022349107561375108
sVcomplimentary
p1059
F0.00031529212480156806
sVslightly
p1060
F-0.0002048626773994757
sVother
p1061
F-0.00029079444232009302
sVautomatically
p1062
F-0.00051323765071550735
sVequally
p1063
F-0.00064770462319917491
sVlocally
p1064
F-3.8813600895206852e-05
sVtechnically
p1065
F-0.0015123909504611184
sVsignificant
p1066
F-0.00032521607799839293
sVpreviously
p1067
F-0.00010572748703718311
sVtight
p1068
F-0.00015977591561584597
sVvisible
p1069
F-0.00013280062287479946
sVfunctional
p1070
F0.00016290561411616729
sVthree
p1071
F4.4788730146233708e-05
sVdown
p1072
F-0.0005320730018821008
sVthankful
p1073
F-0.00025980171596187783
sVappropriate
p1074
F-0.00044140607958703876
sVsquare
p1075
F-0.00011753579202802031
sVsmelly
p1076
F-0.0021596992381068452
sVlively
p1077
F0.00019735017876245785
sVfemale
p1078
F-0.0017443523137589537
sVheated
p1079
F-0.00051647591043866691
sVneedless
p1080
F-0.00073589669561886979
sVvaluable
p1081
F-6.3918741357781744e-05
sVlastly
p1082
F0.00076467014921232442
sVsoon
p1083
F-0.00017197278668336141
sVmere
p1084
F3.1061643712435873e-05
sVshabby
p1085
F-0.0011732369338514268
sVbubbly
p1086
F0.00067724786451328991
sVimpressed
p1087
F0.00022469535319057733
sVsad
p1088
F-0.00032607496227178741
sVadditional
p1089
F-0.00060548253265908119
sVarea
p1090
F-6.4156793924656378e-05
sVamazingly
p1091
F3.7632285815761366e-06
sVflatscreen
p1092
F0.00080849795537992885
sVconstantly
p1093
F-0.0010348125889926558
sVavailable
p1094
F-0.00012733728982662124
sVhey
p1095
F-0.0005137557791479667
sVfast
p1096
F0.00014918685842201695
sVcontinental
p1097
F6.060555428670511e-05
sVinner
p1098
F-0.00026196526066054476
sVway
p1099
F-0.00086563393649946065
sVbiggest
p1100
F-0.00047371844785403639
sVoverhead
p1101
F2.4598356571629452e-05
sVimmaculate
p1102
F0.00062031965737916156
sVhappy
p1103
F4.6902735958790254e-05
sVlowest
p1104
F-0.00054168908612939662
sVconsiderably
p1105
F-0.00054075574775493758
sVnorth
p1106
F0.00050587930269343215
sVelsewhere
p1107
F-0.00071075932326405944
sVgraciously
p1108
F0.00028532527344118073
sVrelaxed
p1109
F0.00082274070243151484
sVpeaceful
p1110
F0.00060136243607435288
sVstunning
p1111
F0.00041177926068500193
sVsomehow
p1112
F-0.00019890252833077576
sVwireless
p1113
F-0.00010864359689596875
sVproperly
p1114
F-0.001287282052042588
sVunderstandable
p1115
F-0.00098039627345325323
sVelderly
p1116
F-0.00027652879863262949
sVnewer
p1117
F-0.00034138489138495177
sVlarger
p1118
F5.176935293458966e-05
sVremote
p1119
F-0.00029009495933480736
sVline
p1120
F-0.00033685843877973758
sVear
p1121
F-0.00051318930006116975
sVdownstairs
p1122
F0.00019989793697406316
sVjunior
p1123
F0.00027929596511738373
sVpartially
p1124
F0.00018413353891824234
sVrush
p1125
F0.00025808978499638232
sVromantic
p1126
F0.00047537015197466367
sVdangerous
p1127
F-0.0020025694083289783
sVinside
p1128
F-0.000394884282674739
sVofficial
p1129
F-0.0015265840714835512
sVattached
p1130
F0.0001130689396127727
sVup
p1131
F-0.00043279264650245193
sVus
p1132
F-0.00024537300859256206
sVunacceptable
p1133
F-0.0026158849460931493
sVun
p1134
F-0.0017361225919544283
sVnicest
p1135
F0.0001670920186673348
sVdirty
p1136
F-0.0040407798195755702
sVsuitable
p1137
F-0.00025770906430389148
sVsite
p1138
F5.7835197763795741e-05
sVunusually
p1139
F-3.0775271072911651e-05
sVproblem
p1140
F-0.00020383162512711757
sVminutes
p1141
F3.9876018834959521e-05
sVcalled
p1142
F-0.0011365378449098144
sVstrongly
p1143
F0.00011350147024419418
sVcordial
p1144
F0.00044009887285831659
sVirish
p1145
F-0.00019064311388528098
sVproud
p1146
F0.0017322391130863216
sVconstant
p1147
F-8.4636568368622587e-05
sVsight
p1148
F-1.7861256918763374e-05
sVclassic
p1149
F0.00012816177707853667
sVcertain
p1150
F-0.00022550999370630294
sVyear
p1151
F-0.00012773009832080646
sVunsafe
p1152
F-0.00060724094829623396
sVdeep
p1153
F-6.15714778967099e-05
sVfellow
p1154
F-0.00084174394811824564
sVtrendy
p1155
F0.000152229727376124
sVas
p1156
F-2.7322549855130916e-05
sVsometime
p1157
F-0.00011446069247470972
sVtasty
p1158
F0.00047622405286522817
sVat
p1159
F-0.00034171281834306886
sVfashioned
p1160
F0.00023447040480805705
sVshopping
p1161
F0.00059383364140010728
sVmediocre
p1162
F-0.00028729521949703168
sVcafe
p1163
F-0.00043697504642537514
sVcheck
p1164
F-8.1252545986832162e-05
sVfour
p1165
F0.0002732413782899377
sVagain
p1166
F-0.00014604058405307446
sVdimly
p1167
F-0.0006252560837773681
sVideally
p1168
F0.00011609533316643062
sVfloor
p1169
F-0.00036364231819129602
sVthere
p1170
F-0.00026973975172064955
sVaccomodating
p1171
F1.6689973630925193e-05
sVgenerally
p1172
F-0.00042235667312334811
sVwalkable
p1173
F0.00013825747033112163
sVoccasional
p1174
F0.00092506718870910792
sVintercontinental
p1175
F0.00021300262286173431
sVcramped
p1176
F-0.00019589287137116812
sVelectrical
p1177
F-0.00090761601342231369
sVsick
p1178
F-0.0029457831686748827
sVyou
p1179
F-0.00023234749289708896
sVincredibly
p1180
F4.8568180952044825e-05
sVmanhattan
p1181
F0.00060662882543869809
sVnice
p1182
F-8.2064690878545907e-05
sVpoor
p1183
F-0.001180292774948809
sVhelpfull
p1184
F-2.6230907128526454e-05
sVstar
p1185
F9.2606222805508812e-05
sVtasteful
p1186
F0.00090766821616445822
sVprovided
p1187
F2.1483549186821437e-05
sVfavourite
p1188
F0.0089031960110210907
sVtime
p1189
F8.9619578367208818e-05
sVsmoothly
p1190
F-0.00029341744110204977
sVpolite
p1191
F-0.00012469958491811083
sVluxurious
p1192
F0.00044477125792026945
sVtown
p1193
F0.00028760613023170821
sVimportant
p1194
F-0.00010846764381924954
sVrecent
p1195
F0.00015509792151498062
sVpeak
p1196
F9.6618177159265477e-06
sVadditionally
p1197
F-0.00092856102013015931
sVserious
p1198
F-0.00083326906413512059
sVincluded
p1199
F4.7718763773206281e-05
sVdecorated
p1200
F-0.00013756541628552941
sVcharming
p1201
F0.00048781085616469023
sVfriends
p1202
F0.00016422061923311929
sVago
p1203
F-0.00028408911653881133
sVbooked
p1204
F-0.0011168777461180756
sVnotch
p1205
F-0.00016559410057426574
sVhappier
p1206
F0.00023118514810381113
sVlonger
p1207
F-0.0003179144465166317
sVfreshly
p1208
F0.00028953338993313441
sVwe
p1209
F-0.0008614527483803969
sVtypically
p1210
F0.00020475804711269421
sVwifi
p1211
F-9.8494032852438512e-05
sVdaily
p1212
F0.00026281272271085624
sVoriginal
p1213
F-0.00038818462647703309
sVbeds
p1214
F0.00010958853528176518
sVcooked
p1215
F0.00019452730538358886
sVloyal
p1216
F-2.7590317155571959e-05
sVsafe
p1217
F-0.00013715559892167459
sVreception
p1218
F-0.00035138258252727676
sVphenomenal
p1219
F0.010541575011449356
sVfresh
p1220
F0.00015625069397896796
sVdeluxe
p1221
F-7.7045024847185594e-05
sVnoon
p1222
F-0.00097939620597821604
sVworried
p1223
F-0.00057598073246698629
sV8th
p1224
F-0.00017982436471409018
s.