(dp1
VLa Semana Hotel 
p2
Vhttps://media-cdn.tripadvisor.com/media/photo-s/03/83/45/29/la-semana-hotel.jpg
p3
sVThe Knickerbocker 
p4
Vhttps://media-cdn.tripadvisor.com/media/photo-s/0a/9f/d4/0c/the-knickerbocker.jpg
p5
sVHotel Metro 
p6
Vhttps://media-cdn.tripadvisor.com/media/photo-s/04/68/e3/f0/premier-bathroom-at-hotel.jpg
p7
sVTrump SoHo New York 
p8
Vhttps://media-cdn.tripadvisor.com/media/photo-s/0e/9d/a8/3b/trump-soho-new-york.jpg
p9
sVFairfield Inn & Suites New York Midtown Manhattan/Penn Station 
p10
Vhttps://media-cdn.tripadvisor.com/media/photo-s/09/cc/cc/9f/lobby-seating-area.jpg
p11
sVWindsor Hotel 
p12
Vhttps://media-cdn.tripadvisor.com/media/photo-s/02/c9/c2/7c/windsor-hotel.jpg
p13
sVSmyth, a Thompson Hotel 
p14
Vhttps://media-cdn.tripadvisor.com/media/photo-s/08/a2/b5/68/smyth-a-thompson-hotel.jpg
p15
sVHotel Chandler 
p16
Vhttps://media-cdn.tripadvisor.com/media/photo-s/08/30/bb/39/hotel-chandler-exterior.jpg
p17
sVHotel Riverside Studios 
p18
Vhttps://media-cdn.tripadvisor.com/media/photo-s/00/16/85/c7/my-room.jpg
p19
sVThe Amsterdam Inn 
p20
Vhttps://media-cdn.tripadvisor.com/media/photo-s/0a/ce/da/78/vista-da-rua.jpg
p21
sVHotel Pennsylvania New York 
p22
Vhttps://media-cdn.tripadvisor.com/media/photo-s/0b/3c/bc/71/exterior.jpg
p23
sVWorld Center Hotel 
p24
Vhttps://media-cdn.tripadvisor.com/media/photo-s/0a/4e/4c/c9/standard-room.jpg
p25
sVGardens NYC\u2013an Affinia hotel 
p26
Vhttps://media-cdn.tripadvisor.com/media/photo-s/07/3d/be/2e/gardens-nyc-an-affinia.jpg
p27
sVDoubletree by Hilton New York Times Square West 
p28
Vhttps://media-cdn.tripadvisor.com/media/photo-s/0e/5e/35/91/king-bed.jpg
p29
sVThe Jewel facing Rockefeller Center 
p30
Vhttps://media-cdn.tripadvisor.com/media/photo-s/09/d2/17/9b/single-small-room.jpg
p31
sVHotel Plaza Athenee New York 
p32
Vhttps://media-cdn.tripadvisor.com/media/photo-s/0b/52/b0/f0/exterior.jpg
p33
sVOakwood at Longacre House 
p34
Vhttps://static.tacdn.com/img2/branding/TA_550x370.png
p35
sVRedford Hotel 
p36
Vhttps://media-cdn.tripadvisor.com/media/photo-s/0d/87/25/00/redford-hotel.jpg
p37
sVFour Points by Sheraton Manhattan Chelsea 
p38
Vhttps://media-cdn.tripadvisor.com/media/photo-s/05/cc/1b/e9/four-points-by-sheraton.jpg
p39
sVHotel Giraffe by Library Hotel Collection 
p40
Vhttps://media-cdn.tripadvisor.com/media/photo-s/07/43/e3/88/hotel-giraffe.jpg
p41
sVWarwick New York 
p42
Vhttps://media-cdn.tripadvisor.com/media/photo-s/0d/81/df/a2/hotel-exterior.jpg
p43
sVInterContinental New York Times Square 
p44
Vhttps://media-cdn.tripadvisor.com/media/photo-s/0a/5c/33/06/the-penthouse--v11167777.jpg
p45
sVNew York Inn 
p46
Vhttps://media-cdn.tripadvisor.com/media/photo-s/00/1d/5e/d1/new-york-inn.jpg
p47
sVKimpton Ink48 Hotel 
p48
Vhttps://media-cdn.tripadvisor.com/media/photo-s/0a/a8/13/45/street--v11612421.jpg
p49
sVHoliday Inn NYC - Lower East Side 
p50
Vhttps://media-cdn.tripadvisor.com/media/photo-s/0c/67/58/32/restaurant.jpg
p51
sVONE UN New York 
p52
Vhttps://media-cdn.tripadvisor.com/media/photo-s/0e/15/19/1a/one-un-new-york.jpg
p53
sVMorningside Inn 
p54
Vhttps://media-cdn.tripadvisor.com/media/photo-s/02/9c/28/fb/filename-morningside.jpg
p55
sVSIXTY SoHo 
p56
Vhttps://media-cdn.tripadvisor.com/media/photo-s/0d/7f/e0/cc/sixty-loft.jpg
p57
sVElk Hotel 
p58
Vhttps://media-cdn.tripadvisor.com/media/photo-s/06/ab/6f/72/elk-hotel.jpg
p59
sVKitano New York 
p60
Vhttps://media-cdn.tripadvisor.com/media/photo-s/08/35/cd/c7/exterior-view.jpg
p61
sVU.S. Pacific Hotel 
p62
Vhttps://media-cdn.tripadvisor.com/media/photo-s/09/b1/2f/4a/photo6jpg.jpg
p63
sVWorld Hotel 
p64
Vhttps://media-cdn.tripadvisor.com/media/photo-s/06/88/2f/17/the-hotel--v2578852.jpg
p65
sVHudson River Hotel 
p66
Vhttps://media-cdn.tripadvisor.com/media/photo-s/0c/73/13/d8/exterior.jpg
p67
sVThe Dorset 
p68
Vhttps://static.tacdn.com/img2/branding/TA_550x370.png
p69
sVRiff Chelsea 
p70
Vhttps://media-cdn.tripadvisor.com/media/photo-s/07/11/72/2c/premium-single-room.jpg
p71
sVWall Street District Hotel 
p72
Vhttps://static.tacdn.com/img2/branding/TA_550x370.png
p73
sVManhattan West Hotel 
p74
Vhttps://media-cdn.tripadvisor.com/media/photo-s/05/f3/57/e4/getlstd-property-photo.jpg
p75
sVHoliday Inn Express Manhattan Times Square South 
p76
Vhttps://media-cdn.tripadvisor.com/media/photo-s/06/2e/3e/3a/weclome-to-the-holiday.jpg
p77
sVNobleDEN Hotel 
p78
Vhttps://media-cdn.tripadvisor.com/media/photo-s/09/9e/b1/08/nobleden-hotel.jpg
p79
sVThe Tuscany - A St Giles Signature Hotel 
p80
Vhttps://media-cdn.tripadvisor.com/media/photo-s/05/73/0b/52/the-tuscany-a-st-giles.jpg
p81
sVParamount Hotel Times Square New York 
p82
Vhttps://media-cdn.tripadvisor.com/media/photo-s/05/ff/a2/1a/paramount-hotel-times.jpg
p83
sVRamada New York/Eastside 
p84
Vhttps://media-cdn.tripadvisor.com/media/photo-s/07/fa/dd/d4/lobby.jpg
p85
sVMount Royal Hotel & Hostel 
p86
Vhttps://media-cdn.tripadvisor.com/media/photo-s/00/15/4b/26/room.jpg
p87
sVPark Savoy 
p88
Vhttps://media-cdn.tripadvisor.com/media/photo-s/00/13/a0/7c/hotel-entrance.jpg
p89
sVHotel Cliff 
p90
Vhttps://media-cdn.tripadvisor.com/media/photo-s/0a/62/13/32/view-from-our-room-balcony.jpg
p91
sVOakwood at 777 6th Avenue 
p92
Vhttps://media-cdn.tripadvisor.com/media/photo-s/02/5d/a2/72/guest-accommodations.jpg
p93
sVArlo NoMad 
p94
Vhttps://media-cdn.tripadvisor.com/media/photo-s/0d/fb/27/72/arlo-nomad-king-skyview.jpg
p95
sVManhattan Broadway Hotel 
p96
Vhttps://media-cdn.tripadvisor.com/media/photo-s/0b/af/9a/c5/king-size-bed-room.jpg
p97
sVExecutive Hotel LeSoleil 
p98
Vhttps://media-cdn.tripadvisor.com/media/photo-s/09/77/91/76/hotel-le-soleil.jpg
p99
sVCassa Hotel Times Square 
p100
Vhttps://media-cdn.tripadvisor.com/media/photo-s/08/02/69/fd/cassa-hotel-times-square.jpg
p101
sVNYLO New York City 
p102
Vhttps://media-cdn.tripadvisor.com/media/photo-s/05/00/0b/66/nylo-new-york-city.jpg
p103
sVSenton Hotel 
p104
Vhttps://media-cdn.tripadvisor.com/media/photo-s/03/83/40/72/senton-hotel.jpg
p105
sVOxbridge Midtown East Apartments 
p106
Vhttps://media-cdn.tripadvisor.com/media/photo-s/01/52/7d/c9/studio-7a.jpg
p107
sVFlushing Motel 
p108
Vhttps://media-cdn.tripadvisor.com/media/photo-s/09/2f/d9/bb/flushing-motel.jpg
p109
sVSignature Properties 
p110
Vhttps://static.tacdn.com/img2/branding/TA_550x370.png
p111
sVSt. Marks Hotel 
p112
Vhttps://media-cdn.tripadvisor.com/media/photo-s/01/1c/34/22/outside-corner-of-3rd.jpg
p113
sVHyatt Union Square New York 
p114
Vhttps://media-cdn.tripadvisor.com/media/photo-s/07/6f/45/f9/hyatt-union-square-new.jpg
p115
sVLoews Regency New York Hotel 
p116
Vhttps://media-cdn.tripadvisor.com/media/photo-s/0d/37/23/a6/exterior.jpg
p117
sVHotel Mimosa 
p118
Vhttps://media-cdn.tripadvisor.com/media/photo-s/0d/7c/b5/8c/hotel-mimosa.jpg
p119
sVThe Melrose Hotel 
p120
Vhttps://static.tacdn.com/img2/branding/TA_550x370.png
p121
sVThe Algonquin Hotel Times Square, Autograph Collection 
p122
Vhttps://media-cdn.tripadvisor.com/media/photo-s/03/60/00/37/the-algonquin-hotel-times.jpg
p123
sVThe Lucerne Hotel 
p124
Vhttps://media-cdn.tripadvisor.com/media/photo-s/0d/ee/3f/a8/the-lucerne-hotel.jpg
p125
sVBaccarat Hotel & Residences New York 
p126
Vhttps://media-cdn.tripadvisor.com/media/photo-s/07/e4/3f/7f/baccarat-hotel-residences.jpg
p127
sVBeekman Apartments 
p128
Vhttps://static.tacdn.com/img2/branding/TA_550x370.png
p129
sVMarrakech Hotel 
p130
Vhttps://media-cdn.tripadvisor.com/media/photo-s/03/cf/75/50/marrakech-hotel-on-broadway.jpg
p131
sVEnvoy Club Suites 
p132
Vhttps://media-cdn.tripadvisor.com/media/photo-s/01/7c/7c/40/bedroom-in-one-or-two.jpg
p133
sVChelsea Inn - 17th Street 
p134
Vhttps://media-cdn.tripadvisor.com/media/photo-s/0d/d2/72/25/chelsea-inn-17th-street.jpg
p135
sVGreenwich Hotel 
p136
Vhttps://media-cdn.tripadvisor.com/media/photo-s/09/80/64/e4/exterior.jpg
p137
sVWest 57th Street by Hilton Club 
p138
Vhttps://media-cdn.tripadvisor.com/media/photo-s/0c/e2/a4/84/premier-studio-living.jpg
p139
sVThe Redbury New York 
p140
Vhttps://media-cdn.tripadvisor.com/media/photo-s/0d/34/20/ec/park-avenue-king.jpg
p141
sVHoliday Inn Express New York City 
p142
Vhttps://media-cdn.tripadvisor.com/media/photo-s/0d/f2/72/02/hotel-exterior.jpg
p143
sVThe High Line Hotel 
p144
Vhttps://media-cdn.tripadvisor.com/media/photo-s/06/32/ae/62/the-high-line-hotel.jpg
p145
sVDays Inn Hotel New York City-Broadway 
p146
Vhttps://media-cdn.tripadvisor.com/media/photo-s/06/2a/5f/4a/welcome-to-days-hotel.jpg
p147
sVThe Roxy Hotel Tribeca 
p148
Vhttps://media-cdn.tripadvisor.com/media/photo-s/0d/d6/6a/1d/the-roxy-by-night.jpg
p149
sVRoyal Park Hotel 
p150
Vhttps://media-cdn.tripadvisor.com/media/photo-s/0b/48/b0/f4/royal-park-hotel-room.jpg
p151
sVStewart Hotel 
p152
Vhttps://media-cdn.tripadvisor.com/media/photo-s/0e/24/43/32/stewart-hotel.jpg
p153
sVChelsea Inn - 11th Avenue 
p154
Vhttps://media-cdn.tripadvisor.com/media/photo-s/03/46/2e/25/chelsea-inn-11th-avenue.jpg
p155
sVThe Mark 
p156
Vhttps://media-cdn.tripadvisor.com/media/photo-s/0b/a3/32/e3/hotel-entrance-night.jpg
p157
s.