(dp0
I0
VLa Semana Hotel 
p1
sI1
VThe Knickerbocker 
p2
sI2
VHotel Metro 
p3
sI3
VTrump SoHo New York 
p4
sI4
VThe Redbury New York 
p5
sI5
VSmyth, a Thompson Hotel 
p6
sI6
VHotel Chandler 
p7
sI7
VHoliday Inn Express New York City 
p8
sI8
VThe Amsterdam Inn 
p9
sI9
VHotel Pennsylvania New York 
p10
sI10
VWorld Center Hotel 
p11
sI11
VGardens NYC\u2013an Affinia hotel 
p12
sI12
VDoubletree by Hilton New York Times Square West 
p13
sI13
VThe Jewel facing Rockefeller Center 
p14
sI14
VHotel Plaza Athenee New York 
p15
sI15
VWarwick New York 
p16
sI16
VManhattan Broadway Hotel 
p17
sI17
VOakwood at Longacre House 
p18
sI18
VRedford Hotel 
p19
sI19
VFour Points by Sheraton Manhattan Chelsea 
p20
sI20
VHotel Giraffe by Library Hotel Collection 
p21
sI21
VU.S. Pacific Hotel 
p22
sI22
VInterContinental New York Times Square 
p23
sI23
VThe Roxy Hotel Tribeca 
p24
sI24
VNew York Inn 
p25
sI25
VKimpton Ink48 Hotel 
p26
sI26
VHoliday Inn NYC - Lower East Side 
p27
sI27
VONE UN New York 
p28
sI28
VMorningside Inn 
p29
sI29
VSIXTY SoHo 
p30
sI30
VElk Hotel 
p31
sI31
VHotel Mimosa 
p32
sI32
VThe Algonquin Hotel Times Square, Autograph Collection 
p33
sI33
VWorld Hotel 
p34
sI34
VHudson River Hotel 
p35
sI35
VParamount Hotel Times Square New York 
p36
sI36
VThe Dorset 
p37
sI37
VThe Lucerne Hotel 
p38
sI38
VRiff Chelsea 
p39
sI39
VWall Street District Hotel 
p40
sI40
VManhattan West Hotel 
p41
sI41
VFairfield Inn & Suites New York Midtown Manhattan/Penn Station 
p42
sI42
VNobleDEN Hotel 
p43
sI43
VThe Tuscany - A St Giles Signature Hotel 
p44
sI44
VCassa Hotel Times Square 
p45
sI45
VMount Royal Hotel & Hostel 
p46
sI46
VPark Savoy 
p47
sI47
VHotel Cliff 
p48
sI48
VOakwood at 777 6th Avenue 
p49
sI49
VArlo NoMad 
p50
sI50
VHotel Riverside Studios 
p51
sI51
VNYLO New York City 
p52
sI52
VSenton Hotel 
p53
sI53
VOxbridge Midtown East Apartments 
p54
sI54
VFlushing Motel 
p55
sI55
VSignature Properties 
p56
sI56
VSt. Marks Hotel 
p57
sI57
VHyatt Union Square New York 
p58
sI58
VLoews Regency New York Hotel 
p59
sI59
VKitano New York 
p60
sI60
VThe Melrose Hotel 
p61
sI61
VThe Mark 
p62
sI62
VGreenwich Hotel 
p63
sI63
VBaccarat Hotel & Residences New York 
p64
sI64
VBeekman Apartments 
p65
sI65
VEnvoy Club Suites 
p66
sI66
VChelsea Inn - 17th Street 
p67
sI67
VExecutive Hotel LeSoleil 
p68
sI68
VWest 57th Street by Hilton Club 
p69
sI69
VStewart Hotel 
p70
sI70
VWindsor Hotel 
p71
sI71
VThe High Line Hotel 
p72
sI72
VDays Inn Hotel New York City-Broadway 
p73
sI73
VHoliday Inn Express Manhattan Times Square South 
p74
sI74
VRoyal Park Hotel 
p75
sI75
VMarrakech Hotel 
p76
sI76
VChelsea Inn - 11th Avenue 
p77
sI77
VRamada New York/Eastside 
p78
s.