ccopy_reg
_reconstructor
p1
(csklearn.feature_extraction.text
TfidfVectorizer
p2
c__builtin__
object
p3
NtRp4
(dp5
S'decode_error'
p6
Vstrict
p7
sS'lowercase'
p8
I01
sS'stop_words'
p9
S'english'
p10
sS'vocabulary'
p11
NsS'tokenizer'
p12
NsS'encoding'
p13
Vutf-8
p14
sS'token_pattern'
p15
V(?u)\u005cb\u005cw\u005cw+\u005cb
p16
sS'analyzer'
p17
Vword
p18
sS'binary'
p19
I00
sS'ngram_range'
p20
(I1
I1
tp21
sS'_sklearn_version'
p22
S'0.18.1'
p23
sS'max_df'
p24
F0.69999999999999996
sS'min_df'
p25
I1
sS'max_features'
p26
NsS'input'
p27
Vcontent
p28
sS'_tfidf'
p29
g1
(csklearn.feature_extraction.text
TfidfTransformer
p30
g3
NtRp31
(dp32
S'use_idf'
p33
I01
sS'smooth_idf'
p34
I01
sg22
g23
sS'sublinear_tf'
p35
I00
sS'norm'
p36
Vl2
p37
sbsS'strip_accents'
p38
NsS'dtype'
p39
cnumpy
int64
p40
sS'preprocessor'
p41
Nsb.