(dp0
I0
I0
sI1
I1
sI2
I2
sI3
I3
sI4
I4
sI5
I5
sI6
I6
sI7
I7
sI8
I8
sI9
I9
sI10
I10
sI11
I11
sI12
I12
sI13
I13
sI14
I14
sI15
I15
sI16
I16
sI17
I17
sI18
I18
sI19
I19
sI20
I20
sI21
I21
sI22
I22
sI23
I23
sI24
I24
sI25
I25
sI26
I26
sI27
I27
sI28
I28
sI29
I29
sI30
I30
sI31
I31
sI32
I32
sI33
I33
sI34
I34
sI35
I35
sI36
I36
sI37
I37
sI38
I38
sI39
I39
sI40
I40
sI41
I41
sI42
I42
sI43
I43
sI44
I44
sI45
I45
sI46
I46
sI47
I47
sI48
I48
sI49
I49
sI50
I50
sI51
I51
sI52
I52
sI53
I53
sI54
I54
sI55
I55
sI56
I56
sI57
I57
sI59
I59
sI60
I60
sI61
I61
sI62
I62
sI63
I63
sI64
I64
sI65
I65
sI66
I66
sI67
I67
sI68
I68
sI69
I69
sI70
I70
sI71
I71
sI72
I72
sI73
I73
sI75
I75
sI76
I76
sI77
I77
sI78
S'7148791'
p1
sI79
S'9261217'
p2
sI80
S'12465301'
p3
sI81
S'736187'
p4
sI82
S'533625'
p5
sI83
S'2056789'
p6
sI84
S'258397'
p7
sI85
S'14228589'
p8
sI86
S'3139749'
p9
sI87
S'296361'
p10
sI88
S'14769785'
p11
sI89
S'11529778'
p12
sI90
S'11221712'
p13
sI91
S'11257690'
p14
sI92
S'16316481'
p15
sI93
S'10882066'
p16
sI94
S'4550602'
p17
sI95
S'6098253'
p18
sI96
S'2264035'
p19
sI97
S'780006'
p20
sI98
S'14987516'
p21
sI99
S'1632416'
p22
sI100
S'15994498'
p23
sI101
S'5500041'
p24
sI102
S'409262'
p25
sI103
S'16815519'
p26
sI104
S'7728510'
p27
sI105
S'3614113'
p28
sI106
S'12363329'
p29
sI107
S'1846100'
p30
sI108
S'14235245'
p31
sI109
S'10901255'
p32
sI110
S'165824'
p33
sI111
S'16377535'
p34
sI112
S'15017045'
p35
sI113
S'2676352'
p36
sI114
S'15678255'
p37
sI115
S'11918709'
p38
sI116
S'2119629'
p39
sI117
S'323059'
p40
sI118
S'13969283'
p41
sI119
S'6434547'
p42
sI120
S'13113181'
p43
sI121
S'7609726'
p44
sI122
S'4909080'
p45
sI123
S'13576581'
p46
sI124
S'9473889'
p47
sI125
S'11801800'
p48
sI126
S'9927666'
p49
sI127
S'14983453'
p50
sI128
S'6038158'
p51
sI129
S'16439426'
p52
sI130
S'532288'
p53
sI131
S'8793166'
p54
sI132
S'16314419'
p55
sI133
S'7987209'
p56
sI134
S'6914332'
p57
sI135
S'6170845'
p58
sI136
S'4190793'
p59
sI137
S'3758669'
p60
sI138
S'10165313'
p61
sI139
S'3518865'
p62
sI140
S'187671'
p63
sI141
S'9859861'
p64
sI142
S'465959'
p65
sI143
S'5660615'
p66
sI144
S'2069779'
p67
sI145
S'6673630'
p68
sI146
S'182069'
p69
sI147
S'11352664'
p70
sI148
S'4841636'
p71
sI149
S'6342741'
p72
sI150
S'12145787'
p73
sI151
S'1966407'
p74
sI152
S'9013350'
p75
sI153
S'2889781'
p76
sI154
S'12307745'
p77
sI155
S'13508735'
p78
sI156
S'11086445'
p79
sI157
S'9790995'
p80
sI158
S'2510190'
p81
sI159
S'271083'
p82
sI160
S'9028856'
p83
sI161
S'4362992'
p84
sI162
S'16436077'
p85
sI163
S'2071464'
p86
sI164
S'4377444'
p87
sI165
S'14807332'
p88
sI166
S'16870983'
p89
sI167
S'13358265'
p90
sI168
S'15024995'
p91
sI169
S'11322054'
p92
sI170
S'7438254'
p93
sI171
S'1606640'
p94
sI172
S'12973878'
p95
sI173
S'1797661'
p96
sI174
S'6645263'
p97
sI175
S'9059844'
p98
sI176
S'9522763'
p99
sI177
S'660542'
p100
sI178
S'13206851'
p101
sI179
S'11659296'
p102
sI180
S'2639521'
p103
sI181
S'1869467'
p104
sI182
S'1223543'
p105
sI183
S'9926044'
p106
sI184
S'11678223'
p107
sI185
S'15216124'
p108
sI186
S'9922748'
p109
sI187
S'23501'
p110
sI188
S'1436810'
p111
sI189
S'11974141'
p112
sI190
S'15524207'
p113
sI191
S'16303301'
p114
sI192
S'803237'
p115
sI193
S'5760776'
p116
sI194
S'2221852'
p117
sI195
S'14181211'
p118
sI196
S'10569945'
p119
sI197
S'9585339'
p120
sI198
S'15391355'
p121
sI199
S'2111336'
p122
sI200
S'14935831'
p123
sI201
S'6927027'
p124
sI202
S'12489666'
p125
sI203
S'7308857'
p126
sI204
S'14429957'
p127
sI205
S'6619589'
p128
sI206
S'10589945'
p129
sI207
S'9074702'
p130
sI208
S'8781592'
p131
sI209
S'6355471'
p132
sI210
S'10489923'
p133
sI211
S'9934696'
p134
sI212
S'9425922'
p135
sI213
S'9406699'
p136
sI214
S'6738524'
p137
sI215
S'9360889'
p138
sI216
S'15220538'
p139
sI217
S'4301204'
p140
sI218
S'13192590'
p141
sI219
S'11221362'
p142
sI220
S'4333927'
p143
sI221
S'11481548'
p144
sI222
S'7672361'
p145
sI223
S'84905'
p146
sI224
S'11181494'
p147
sI225
S'14120431'
p148
sI226
S'1201479'
p149
sI227
S'42882'
p150
sI228
S'16253053'
p151
sI229
S'276058'
p152
sI230
S'5185807'
p153
sI231
S'12699631'
p154
sI232
S'13532136'
p155
sI233
S'2237851'
p156
sI234
S'6384378'
p157
sI235
S'6270767'
p158
sI236
S'11929908'
p159
sI237
S'13604485'
p160
sI238
S'13590200'
p161
sI239
S'13556846'
p162
sI240
S'2686412'
p163
sI241
S'13330638'
p164
sI242
S'9859033'
p165
sI243
S'449553'
p166
sI244
S'10967026'
p167
sI245
S'9133645'
p168
sI246
S'2098009'
p169
sI247
S'9175459'
p170
sI248
S'3531681'
p171
sI249
S'13293823'
p172
sI250
S'15908933'
p173
sI251
S'5113910'
p174
sI252
S'10365373'
p175
sI253
S'15038469'
p176
sI254
S'7679142'
p177
sI255
S'6822519'
p178
sI256
S'6277470'
p179
sI257
S'13577818'
p180
sI258
S'13752815'
p181
sI259
S'1074155'
p182
sI260
S'5848277'
p183
sI261
S'371835'
p184
sI262
S'5640394'
p185
sI263
S'10023965'
p186
sI264
S'11585163'
p187
sI265
S'5728502'
p188
sI266
S'4567765'
p189
sI267
S'8899565'
p190
sI268
S'2011942'
p191
sI269
S'8806783'
p192
sI270
S'7859825'
p193
sI271
S'1932110'
p194
sI272
S'4119780'
p195
sI273
S'1276554'
p196
sI274
S'1240795'
p197
sI275
S'4000127'
p198
sI276
S'12522459'
p199
sI277
S'8522933'
p200
sI278
S'1860478'
p201
sI279
S'4662889'
p202
sI280
S'12751209'
p203
sI281
S'9391088'
p204
sI282
S'13788789'
p205
sI283
S'10561771'
p206
sI284
S'13693976'
p207
sI285
S'6481924'
p208
sI286
S'12955454'
p209
sI287
S'2744182'
p210
sI288
S'6939597'
p211
sI289
S'8444555'
p212
sI290
S'3400645'
p213
sI291
S'14414440'
p214
sI292
S'13002901'
p215
sI293
S'6560717'
p216
sI294
S'15005737'
p217
sI295
S'6014718'
p218
sI296
S'14303024'
p219
sI297
S'14992864'
p220
sI298
S'5985843'
p221
sI299
S'14183533'
p222
sI300
S'1910210'
p223
sI301
S'12759453'
p224
sI302
S'8555411'
p225
sI303
S'14238574'
p226
sI304
S'6135381'
p227
sI305
S'1049224'
p228
sI306
S'13044203'
p229
sI307
S'13740409'
p230
sI308
S'4548258'
p231
sI309
S'1137587'
p232
sI310
S'7916802'
p233
sI311
S'12127470'
p234
sI312
S'12376365'
p235
sI313
S'10828230'
p236
sI314
S'1750679'
p237
sI315
S'1896337'
p238
sI316
S'11799747'
p239
sI317
S'8342009'
p240
sI318
S'4482158'
p241
sI319
S'15523555'
p242
sI320
S'11111303'
p243
sI321
S'4285522'
p244
sI322
S'1731365'
p245
sI323
S'3952328'
p246
sI324
S'14096809'
p247
sI325
S'10187402'
p248
sI326
S'11343850'
p249
sI327
S'9758406'
p250
sI328
S'1950588'
p251
sI329
S'7824018'
p252
sI330
S'5058359'
p253
sI331
S'11916587'
p254
sI332
S'13216357'
p255
sI333
S'688722'
p256
sI334
S'4664672'
p257
sI335
S'9504657'
p258
sI336
S'14124666'
p259
sI337
S'66974'
p260
sI338
S'9883870'
p261
sI339
S'13236388'
p262
sI340
S'3529442'
p263
sI341
S'5793654'
p264
sI342
S'15773388'
p265
sI343
S'14805414'
p266
sI344
S'9125917'
p267
sI345
S'12650157'
p268
sI346
S'11371535'
p269
sI347
S'13526483'
p270
sI348
S'8257211'
p271
sI349
S'12025076'
p272
sI350
S'16719319'
p273
sI351
S'10787042'
p274
sI352
S'7348959'
p275
sI353
S'13415535'
p276
sI354
S'126816'
p277
sI355
S'23269'
p278
sI356
S'6168880'
p279
sI357
S'4948928'
p280
sI358
S'7602426'
p281
sI359
S'1401826'
p282
sI360
S'10790350'
p283
sI361
S'763956'
p284
sI362
S'12273048'
p285
sI363
S'3984741'
p286
sI364
S'7193201'
p287
sI365
S'755392'
p288
sI366
S'4402805'
p289
sI367
S'12723407'
p290
sI368
S'8416681'
p291
sI369
S'12464635'
p292
sI370
S'13333916'
p293
sI371
S'3201696'
p294
sI372
S'14654784'
p295
sI373
S'8117209'
p296
sI374
S'7182243'
p297
sI375
S'3913509'
p298
sI376
S'11060749'
p299
sI377
S'7698722'
p300
sI378
S'14301857'
p301
sI379
S'1646838'
p302
sI380
S'1256247'
p303
sI381
S'9967046'
p304
sI382
S'1221962'
p305
sI383
S'3488283'
p306
sI384
S'9778655'
p307
sI385
S'16041421'
p308
sI386
S'15287023'
p309
sI387
S'7512811'
p310
sI388
S'3264261'
p311
sI389
S'15409749'
p312
sI390
S'10791008'
p313
sI391
S'4026150'
p314
sI392
S'7901635'
p315
sI393
S'15568616'
p316
sI394
S'16110083'
p317
sI395
S'8024915'
p318
sI396
S'4214393'
p319
sI397
S'11658678'
p320
sI398
S'11910609'
p321
sI399
S'8973873'
p322
sI400
S'6778747'
p323
sI401
S'14371065'
p324
sI402
S'358565'
p325
sI403
S'2515'
p326
sI404
S'16258511'
p327
sI405
S'10427581'
p328
sI406
S'294239'
p329
sI407
S'147004'
p330
sI408
S'11356941'
p331
sI409
S'12321626'
p332
sI410
S'6239848'
p333
sI411
S'8190219'
p334
sI412
S'575061'
p335
sI413
S'15535918'
p336
sI414
S'1843955'
p337
sI415
S'1847434'
p338
sI416
S'7782340'
p339
sI417
S'15343612'
p340
sI418
S'7860155'
p341
sI419
S'3354458'
p342
sI420
S'8549355'
p343
sI421
S'10485102'
p344
sI422
S'5732479'
p345
sI423
S'8652647'
p346
sI424
S'8957187'
p347
sI425
S'1297212'
p348
sI426
S'15342520'
p349
sI427
S'5382628'
p350
sI428
S'13799264'
p351
sI429
S'10748040'
p352
sI430
S'7801803'
p353
sI431
S'15514272'
p354
sI432
S'10263516'
p355
sI433
S'9613626'
p356
sI434
S'1866131'
p357
sI435
S'8610516'
p358
sI436
S'1506985'
p359
sI437
S'269215'
p360
sI438
S'14043267'
p361
sI439
S'13789192'
p362
sI440
S'7915831'
p363
sI441
S'4928889'
p364
sI442
S'10115542'
p365
sI443
S'13186778'
p366
sI444
S'698298'
p367
sI445
S'4422375'
p368
sI446
S'8663660'
p369
sI447
S'14881794'
p370
sI448
S'13543171'
p371
sI449
S'12342441'
p372
sI450
S'8902110'
p373
sI451
S'7241020'
p374
sI452
S'15511681'
p375
sI453
S'7328721'
p376
sI454
S'4629211'
p377
sI455
S'9054109'
p378
sI456
S'10083580'
p379
sI457
S'2232600'
p380
sI458
S'15299349'
p381
sI459
S'5661276'
p382
sI460
S'11971405'
p383
sI461
S'59014'
p384
sI462
S'9609762'
p385
sI463
S'16159023'
p386
sI464
S'15110'
p387
sI465
S'10056358'
p388
sI466
S'13907872'
p389
sI467
S'7306633'
p390
sI468
S'12294032'
p391
sI469
S'560078'
p392
sI470
S'951365'
p393
sI471
S'276120'
p394
sI472
S'13846485'
p395
sI473
S'11490744'
p396
sI474
S'11163615'
p397
sI475
S'14077208'
p398
sI476
S'2311031'
p399
sI477
S'10193343'
p400
sI478
S'3865141'
p401
sI479
S'4128603'
p402
sI480
S'14164004'
p403
sI481
S'833519'
p404
sI482
S'7914401'
p405
sI483
S'10118922'
p406
sI484
S'11902619'
p407
sI485
S'1352560'
p408
sI486
S'8479799'
p409
sI487
S'15585154'
p410
sI488
S'4259427'
p411
sI489
S'8881329'
p412
sI490
S'3479639'
p413
sI491
S'7790564'
p414
sI492
S'13490175'
p415
sI493
S'1895544'
p416
sI494
S'13047915'
p417
sI495
S'7072541'
p418
sI496
S'11324565'
p419
sI497
S'9236790'
p420
sI498
S'14222333'
p421
sI499
S'14754579'
p422
sI500
S'2028291'
p423
sI501
S'15890023'
p424
sI502
S'475456'
p425
sI503
S'2371632'
p426
sI504
S'4357680'
p427
sI505
S'158176'
p428
sI506
S'14361378'
p429
sI507
S'5499080'
p430
sI508
S'14028586'
p431
sI509
S'16315325'
p432
sI510
S'8603250'
p433
sI511
S'13233830'
p434
sI512
S'1785942'
p435
sI513
S'2241458'
p436
sI514
S'16542661'
p437
sI515
S'4550813'
p438
sI516
S'489086'
p439
sI517
S'9649558'
p440
sI518
S'5774245'
p441
sI519
S'5162093'
p442
sI520
S'6576336'
p443
sI521
S'7709241'
p444
sI522
S'15250168'
p445
sI523
S'11668469'
p446
sI524
S'16423080'
p447
sI525
S'1214086'
p448
sI526
S'10658307'
p449
sI527
S'14404645'
p450
sI528
S'15430782'
p451
sI529
S'1073635'
p452
sI530
S'6557209'
p453
sI531
S'6043671'
p454
sI532
S'266756'
p455
sI533
S'9022972'
p456
sI534
S'6542603'
p457
sI535
S'2124808'
p458
sI536
S'14595160'
p459
sI537
S'6839938'
p460
sI538
S'10766339'
p461
sI539
S'803778'
p462
sI540
S'13006777'
p463
sI541
S'8813461'
p464
sI542
S'15745528'
p465
sI543
S'16922464'
p466
sI544
S'15559718'
p467
sI545
S'824421'
p468
sI546
S'13348987'
p469
sI547
S'6150855'
p470
sI548
S'13638122'
p471
sI549
S'4766582'
p472
sI550
S'8517554'
p473
sI551
S'15705322'
p474
sI552
S'9434464'
p475
sI553
S'9928644'
p476
sI554
S'15840275'
p477
sI555
S'4718314'
p478
sI556
S'15986180'
p479
sI557
S'270568'
p480
sI558
S'13623520'
p481
sI559
S'14712405'
p482
sI560
S'7070947'
p483
sI561
S'1518302'
p484
sI562
S'14485082'
p485
sI563
S'7131007'
p486
sI564
S'6782470'
p487
sI565
S'13882394'
p488
sI566
S'7344720'
p489
sI567
S'513688'
p490
sI568
S'13569725'
p491
sI569
S'11178771'
p492
sI570
S'8626854'
p493
sI571
S'11182548'
p494
sI572
S'12774235'
p495
sI573
S'841211'
p496
sI574
S'12845862'
p497
sI575
S'2262148'
p498
sI576
S'7450047'
p499
sI577
S'14312842'
p500
sI578
S'731300'
p501
sI579
S'6747685'
p502
sI580
S'14757295'
p503
sI581
S'54694'
p504
sI582
S'8168948'
p505
sI583
S'12982169'
p506
sI584
S'15508085'
p507
sI585
S'8454042'
p508
sI586
S'6505927'
p509
sI587
S'11138823'
p510
sI588
S'8554567'
p511
sI589
S'14504290'
p512
sI590
S'6337031'
p513
sI591
S'7321054'
p514
sI592
S'9476397'
p515
sI593
S'7616822'
p516
sI594
S'1029482'
p517
sI595
S'10403922'
p518
sI596
S'14218251'
p519
sI597
S'9067195'
p520
sI598
S'466277'
p521
sI599
S'9231083'
p522
sI600
S'11514023'
p523
sI601
S'14008708'
p524
sI602
S'13376738'
p525
sI603
S'3731871'
p526
sI604
S'9843751'
p527
sI605
S'2561229'
p528
sI606
S'10279736'
p529
sI607
S'4220732'
p530
sI608
S'9625889'
p531
sI609
S'7453537'
p532
sI610
S'14108669'
p533
sI611
S'3971900'
p534
sI612
S'6706381'
p535
sI613
S'403056'
p536
sI614
S'1887607'
p537
sI615
S'7583507'
p538
sI616
S'172445'
p539
sI617
S'13325565'
p540
sI618
S'529340'
p541
sI619
S'6238781'
p542
sI620
S'15899421'
p543
sI621
S'11603743'
p544
sI622
S'774791'
p545
sI623
S'393682'
p546
sI624
S'1583254'
p547
sI625
S'11791968'
p548
sI626
S'9280872'
p549
sI627
S'2801603'
p550
sI628
S'12568741'
p551
sI629
S'190974'
p552
sI630
S'5685050'
p553
sI631
S'16123772'
p554
sI632
S'16649118'
p555
sI633
S'14704979'
p556
sI634
S'4575303'
p557
sI635
S'882441'
p558
sI636
S'13726629'
p559
sI637
S'14670685'
p560
sI638
S'10016353'
p561
sI639
S'751851'
p562
sI640
S'14732889'
p563
sI641
S'8195260'
p564
sI642
S'5533420'
p565
sI643
S'14795704'
p566
sI644
S'15984809'
p567
sI645
S'7327841'
p568
sI646
S'12209944'
p569
sI647
S'13226498'
p570
sI648
S'15547485'
p571
sI649
S'4550647'
p572
sI650
S'27006'
p573
sI651
S'9899970'
p574
sI652
S'16391031'
p575
sI653
S'279093'
p576
sI654
S'14590480'
p577
sI655
S'14139921'
p578
sI656
S'816907'
p579
sI657
S'4708609'
p580
sI658
S'16416294'
p581
sI659
S'3343299'
p582
sI660
S'7224086'
p583
sI661
S'13134263'
p584
sI662
S'259887'
p585
sI663
S'7709582'
p586
sI664
S'7728553'
p587
sI665
S'5856557'
p588
sI666
S'16026128'
p589
sI667
S'15126483'
p590
sI668
S'9902314'
p591
sI669
S'1510283'
p592
sI670
S'6659371'
p593
sI671
S'3264797'
p594
sI672
S'6403217'
p595
sI673
S'15206029'
p596
sI674
S'4772987'
p597
sI675
S'10671589'
p598
sI676
S'7621131'
p599
sI677
S'9646918'
p600
sI678
S'493611'
p601
sI679
S'13206241'
p602
sI680
S'6170738'
p603
sI681
S'14935251'
p604
sI682
S'2876055'
p605
sI683
S'14014299'
p606
sI684
S'7805051'
p607
sI685
S'4014004'
p608
sI686
S'15701856'
p609
sI687
S'5579147'
p610
sI688
S'4125398'
p611
sI689
S'12191808'
p612
sI690
S'13952029'
p613
sI691
S'14946558'
p614
sI692
S'15968094'
p615
sI693
S'13318239'
p616
sI694
S'7279583'
p617
sI695
S'8036500'
p618
sI696
S'1387431'
p619
sI697
S'2023357'
p620
sI698
S'690603'
p621
sI699
S'2026952'
p622
sI700
S'13258973'
p623
sI701
S'14967881'
p624
sI702
S'3797183'
p625
sI703
S'6132757'
p626
sI704
S'4798794'
p627
sI705
S'12274909'
p628
sI706
S'5511210'
p629
sI707
S'4729854'
p630
sI708
S'840371'
p631
sI709
S'2611649'
p632
sI710
S'6389932'
p633
sI711
S'9488756'
p634
sI712
S'324517'
p635
sI713
S'5779471'
p636
sI714
S'8172864'
p637
sI715
S'12423497'
p638
sI716
S'15518206'
p639
sI717
S'10425572'
p640
sI718
S'6586028'
p641
sI719
S'6282629'
p642
sI720
S'5942962'
p643
sI721
S'13427968'
p644
sI722
S'1835728'
p645
sI723
S'10069376'
p646
sI724
S'9472829'
p647
sI725
S'13653343'
p648
sI726
S'3061221'
p649
sI727
S'651761'
p650
sI728
S'6185530'
p651
sI729
S'7358087'
p652
sI730
S'5061165'
p653
sI731
S'9716424'
p654
sI732
S'8382165'
p655
sI733
S'734514'
p656
sI734
S'2634963'
p657
sI735
S'6520055'
p658
sI736
S'4324388'
p659
sI737
S'7366189'
p660
sI738
S'6993862'
p661
sI739
S'15707075'
p662
sI740
S'14471513'
p663
sI741
S'14588464'
p664
sI742
S'10798454'
p665
sI743
S'9318083'
p666
sI744
S'1151565'
p667
sI745
S'8937240'
p668
sI746
S'13768247'
p669
sI747
S'7745417'
p670
sI748
S'5316377'
p671
sI749
S'11871690'
p672
sI750
S'471712'
p673
sI751
S'7122791'
p674
sI752
S'6614078'
p675
sI753
S'4102208'
p676
sI754
S'15353971'
p677
sI755
S'191075'
p678
sI756
S'9064394'
p679
sI757
S'6523409'
p680
sI758
S'4172947'
p681
sI759
S'10200715'
p682
sI760
S'1619756'
p683
sI761
S'14113128'
p684
sI762
S'26520'
p685
sI763
S'475472'
p686
sI764
S'774478'
p687
sI765
S'2272739'
p688
sI766
S'13424311'
p689
sI767
S'2206115'
p690
sI768
S'15700951'
p691
sI769
S'5704852'
p692
sI770
S'7240830'
p693
sI771
S'4003436'
p694
sI772
S'15966918'
p695
sI773
S'16156771'
p696
sI774
S'10352280'
p697
sI775
S'1668176'
p698
sI776
S'5871372'
p699
sI777
S'3479614'
p700
sI778
S'55668'
p701
sI779
S'3530517'
p702
sI780
S'5913433'
p703
sI781
S'13612556'
p704
sI782
S'3006318'
p705
sI783
S'7020266'
p706
sI784
S'8222831'
p707
sI785
S'14094370'
p708
sI786
S'14276565'
p709
sI787
S'14818363'
p710
sI788
S'4330251'
p711
sI789
S'8135144'
p712
sI790
S'12981941'
p713
sI791
S'4557370'
p714
sI792
S'7676721'
p715
sI793
S'11199645'
p716
sI794
S'9857658'
p717
sI795
S'1142338'
p718
sI796
S'11374481'
p719
sI797
S'15775237'
p720
sI798
S'824400'
p721
sI799
S'1126656'
p722
sI800
S'631601'
p723
sI801
S'9899167'
p724
sI802
S'1837603'
p725
sI803
S'14742285'
p726
sI804
S'9103619'
p727
sI805
S'2740077'
p728
sI806
S'9648225'
p729
sI807
S'10684258'
p730
sI808
S'8311783'
p731
sI809
S'14798649'
p732
sI810
S'7480520'
p733
sI811
S'9061811'
p734
sI812
S'424192'
p735
sI813
S'12948110'
p736
sI814
S'1988348'
p737
sI815
S'1005763'
p738
sI816
S'12427275'
p739
sI817
S'9529662'
p740
sI818
S'9526314'
p741
sI819
S'3452721'
p742
sI820
S'10185960'
p743
sI821
S'15150200'
p744
sI822
S'16971'
p745
sI823
S'4033444'
p746
sI824
S'15495958'
p747
sI825
S'14535713'
p748
sI826
S'15232319'
p749
sI827
S'4040900'
p750
sI828
S'15438016'
p751
sI829
S'6656658'
p752
sI830
S'5571716'
p753
sI831
S'15049233'
p754
sI832
S'7094462'
p755
sI833
S'7455580'
p756
sI834
S'13328117'
p757
sI835
S'1917226'
p758
sI836
S'2801924'
p759
sI837
S'14203322'
p760
sI838
S'15482512'
p761
sI839
S'13479302'
p762
sI840
S'3272721'
p763
sI841
S'587698'
p764
sI842
S'15478604'
p765
sI843
S'14295171'
p766
sI844
S'7610785'
p767
sI845
S'13151072'
p768
sI846
S'16469681'
p769
sI847
S'2968729'
p770
sI848
S'1953816'
p771
sI849
S'5826129'
p772
sI850
S'3789400'
p773
sI851
S'15563157'
p774
sI852
S'8241435'
p775
sI853
S'10901062'
p776
sI854
S'818030'
p777
sI855
S'10152418'
p778
sI856
S'11183697'
p779
sI857
S'14351693'
p780
sI858
S'804246'
p781
sI859
S'16364895'
p782
sI860
S'385657'
p783
sI861
S'16464726'
p784
sI862
S'9730117'
p785
sI863
S'7664965'
p786
sI864
S'11775483'
p787
sI865
S'568933'
p788
sI866
S'4170796'
p789
sI867
S'6660373'
p790
sI868
S'14200169'
p791
sI869
S'6635179'
p792
sI870
S'823381'
p793
sI871
S'6975905'
p794
sI872
S'7660047'
p795
sI873
S'2272872'
p796
sI874
S'15720498'
p797
sI875
S'10657189'
p798
sI876
S'7127556'
p799
sI877
S'13991287'
p800
sI878
S'337468'
p801
sI879
S'4333204'
p802
sI880
S'4045195'
p803
sI881
S'15250371'
p804
sI882
S'1344551'
p805
sI883
S'9350018'
p806
sI884
S'12602408'
p807
sI885
S'7728122'
p808
sI886
S'2154075'
p809
sI887
S'4716376'
p810
sI888
S'15143394'
p811
sI889
S'8866335'
p812
sI890
S'9116018'
p813
sI891
S'7518967'
p814
sI892
S'883209'
p815
sI893
S'6951342'
p816
sI894
S'495249'
p817
sI895
S'13300548'
p818
sI896
S'2716889'
p819
sI897
S'15839085'
p820
sI898
S'27024'
p821
sI899
S'7713421'
p822
sI900
S'12544062'
p823
sI901
S'9933667'
p824
sI902
S'6269945'
p825
sI903
S'16369610'
p826
sI904
S'12125924'
p827
sI905
S'763912'
p828
sI906
S'4746470'
p829
sI907
S'15042329'
p830
sI908
S'3663798'
p831
sI909
S'4437790'
p832
sI910
S'15073845'
p833
sI911
S'7009122'
p834
sI912
S'15632527'
p835
sI913
S'7456691'
p836
sI914
S'13217991'
p837
sI915
S'196100'
p838
sI916
S'13732215'
p839
sI917
S'1312228'
p840
sI918
S'4745876'
p841
sI919
S'14991035'
p842
sI920
S'8800573'
p843
sI921
S'7663730'
p844
sI922
S'14576922'
p845
sI923
S'2803124'
p846
sI924
S'11190831'
p847
sI925
S'13491439'
p848
sI926
S'10307958'
p849
sI927
S'1942935'
p850
sI928
S'4829029'
p851
sI929
S'55505'
p852
sI930
S'7142734'
p853
sI931
S'8595036'
p854
sI932
S'9778960'
p855
sI933
S'3474011'
p856
sI934
S'11967737'
p857
sI935
S'3759009'
p858
sI936
S'15187369'
p859
sI937
S'1245624'
p860
sI938
S'13598159'
p861
sI939
S'15564125'
p862
sI940
S'4276532'
p863
sI941
S'13443722'
p864
sI942
S'7194042'
p865
sI943
S'15944'
p866
sI944
S'2764392'
p867
sI945
S'1195198'
p868
sI946
S'5236146'
p869
sI947
S'167222'
p870
sI948
S'320700'
p871
sI949
S'14473282'
p872
sI950
S'9736227'
p873
sI951
S'6994625'
p874
sI952
S'10460113'
p875
sI953
S'14691598'
p876
sI954
S'14014016'
p877
sI955
S'5746781'
p878
sI956
S'9458704'
p879
sI957
S'38833'
p880
sI958
S'9514839'
p881
sI959
S'6800598'
p882
sI960
S'15880603'
p883
sI961
S'7095708'
p884
sI962
S'13751992'
p885
sI963
S'11861349'
p886
sI964
S'1072481'
p887
sI965
S'5054072'
p888
sI966
S'12999167'
p889
sI967
S'16401944'
p890
sI968
S'7345868'
p891
sI969
S'702578'
p892
sI970
S'5055704'
p893
sI971
S'8612604'
p894
sI972
S'4620262'
p895
sI973
S'6436057'
p896
sI974
S'10090735'
p897
sI975
S'8444013'
p898
sI976
S'12502633'
p899
sI977
S'12737660'
p900
sI978
S'15800461'
p901
sI979
S'5632825'
p902
sI980
S'8614461'
p903
sI981
S'1798308'
p904
sI982
S'1654551'
p905
sI983
S'11161938'
p906
sI984
S'4351563'
p907
sI985
S'1454945'
p908
sI986
S'9514826'
p909
sI987
S'15423623'
p910
sI988
S'7789408'
p911
sI989
S'1967045'
p912
sI990
S'7262304'
p913
sI991
S'12522952'
p914
sI992
S'13073701'
p915
sI993
S'9346752'
p916
sI994
S'876565'
p917
sI995
S'15598303'
p918
sI996
S'591710'
p919
sI997
S'4880811'
p920
sI998
S'8067466'
p921
sI999
S'6956630'
p922
sI1000
S'3819946'
p923
sI1001
S'57901'
p924
sI1002
S'444171'
p925
sI1003
S'10071225'
p926
sI1004
S'9515996'
p927
sI1005
S'15970037'
p928
sI1006
S'13761125'
p929
sI1007
S'13371699'
p930
sI1008
S'14263129'
p931
sI1009
S'8879282'
p932
sI1010
S'13670455'
p933
sI1011
S'12687169'
p934
sI1012
S'14281575'
p935
sI1013
S'9807848'
p936
sI1014
S'15731924'
p937
sI1015
S'15799340'
p938
sI1016
S'7324832'
p939
sI1017
S'8558627'
p940
sI1018
S'1306966'
p941
sI1019
S'16454598'
p942
sI1020
S'16310798'
p943
sI1021
S'3952264'
p944
sI1022
S'9310390'
p945
sI1023
S'2942505'
p946
sI1024
S'8886421'
p947
sI1025
S'12818124'
p948
sI1026
S'15563361'
p949
sI1027
S'8102012'
p950
sI1028
S'7329091'
p951
sI1029
S'8609779'
p952
sI1030
S'15767828'
p953
sI1031
S'7222504'
p954
sI1032
S'516461'
p955
sI1033
S'1541574'
p956
sI1034
S'3626609'
p957
sI1035
S'13987276'
p958
sI1036
S'8275069'
p959
sI1037
S'11548782'
p960
sI1038
S'7816449'
p961
sI1039
S'3032040'
p962
sI1040
S'9496206'
p963
sI1041
S'933861'
p964
sI1042
S'14710763'
p965
sI1043
S'16429866'
p966
sI1044
S'1322917'
p967
sI1045
S'9281201'
p968
sI1046
S'13561422'
p969
sI1047
S'2028432'
p970
sI1048
S'3790048'
p971
sI1049
S'12915928'
p972
sI1050
S'12583393'
p973
sI1051
S'8283627'
p974
sI1052
S'15867248'
p975
sI1053
S'5888002'
p976
sI1054
S'856918'
p977
sI1055
S'9423397'
p978
sI1056
S'10708999'
p979
sI1057
S'4874722'
p980
sI1058
S'2101112'
p981
sI1059
S'13744556'
p982
sI1060
S'406056'
p983
sI1061
S'10732710'
p984
sI1062
S'9597325'
p985
sI1063
S'96471'
p986
sI1064
S'8556792'
p987
sI1065
S'12760494'
p988
sI1066
S'5850040'
p989
sI1067
S'7677565'
p990
sI1068
S'14424847'
p991
sI1069
S'6898600'
p992
sI1070
S'6370773'
p993
sI1071
S'4565032'
p994
sI1072
S'8385064'
p995
sI1073
S'13656635'
p996
sI1074
S'12522387'
p997
sI1075
S'1174619'
p998
sI1076
S'7179563'
p999
sI1077
S'683106'
p1000
sI1078
S'6130145'
p1001
sI1079
S'16397121'
p1002
sI1080
S'9813715'
p1003
sI1081
S'15706863'
p1004
sI1082
S'10122449'
p1005
sI1083
S'7036435'
p1006
sI1084
S'15187428'
p1007
sI1085
S'510447'
p1008
sI1086
S'12917279'
p1009
sI1087
S'15857916'
p1010
sI1088
S'7452390'
p1011
sI1089
S'764753'
p1012
sI1090
S'4440611'
p1013
sI1091
S'17169353'
p1014
sI1092
S'1702916'
p1015
sI1093
S'8855893'
p1016
sI1094
S'14234210'
p1017
sI1095
S'9398776'
p1018
sI1096
S'14945943'
p1019
sI1097
S'10102103'
p1020
sI1098
S'3906676'
p1021
sI1099
S'12005195'
p1022
sI1100
S'9296457'
p1023
sI1101
S'870246'
p1024
sI1102
S'9649718'
p1025
sI1103
S'2081177'
p1026
sI1104
S'227715'
p1027
sI1105
S'4767942'
p1028
sI1106
S'11477869'
p1029
sI1107
S'6492190'
p1030
sI1108
S'1901357'
p1031
sI1109
S'5224210'
p1032
sI1110
S'2563997'
p1033
sI1111
S'63299'
p1034
sI1112
S'1836530'
p1035
sI1113
S'13596286'
p1036
sI1114
S'13861636'
p1037
sI1115
S'7516218'
p1038
sI1116
S'14127687'
p1039
sI1117
S'11937618'
p1040
sI1118
S'16078743'
p1041
sI1119
S'9107062'
p1042
sI1120
S'14696313'
p1043
sI1121
S'14824735'
p1044
sI1122
S'9683022'
p1045
sI1123
S'14293418'
p1046
sI1124
S'743549'
p1047
sI1125
S'9443911'
p1048
sI1126
S'16026815'
p1049
sI1127
S'7789213'
p1050
sI1128
S'271128'
p1051
sI1129
S'14614579'
p1052
sI1130
S'1080766'
p1053
sI1131
S'7276534'
p1054
sI1132
S'2498576'
p1055
sI1133
S'4928303'
p1056
sI1134
S'9427331'
p1057
sI1135
S'12470816'
p1058
sI1136
S'14485877'
p1059
sI1137
S'8189118'
p1060
sI1138
S'2071546'
p1061
sI1139
S'7068940'
p1062
sI1140
S'12884998'
p1063
sI1141
S'525293'
p1064
sI1142
S'12057450'
p1065
sI1143
S'526923'
p1066
sI1144
S'8687556'
p1067
sI1145
S'9316872'
p1068
sI1146
S'15664037'
p1069
sI1147
S'4435213'
p1070
sI1148
S'256049'
p1071
sI1149
S'8459000'
p1072
sI1150
S'3627720'
p1073
sI1151
S'460999'
p1074
sI1152
S'4305170'
p1075
sI1153
S'7204721'
p1076
sI1154
S'16534963'
p1077
sI1155
S'5572024'
p1078
sI1156
S'4839932'
p1079
sI1157
S'11279590'
p1080
sI1158
S'181522'
p1081
sI1159
S'530431'
p1082
sI1160
S'15524161'
p1083
sI1161
S'6261696'
p1084
sI1162
S'8145441'
p1085
sI1163
S'8036849'
p1086
sI1164
S'6129137'
p1087
sI1165
S'4407787'
p1088
sI1166
S'3111416'
p1089
sI1167
S'6954794'
p1090
sI1168
S'66008'
p1091
sI1169
S'359982'
p1092
sI1170
S'1960358'
p1093
sI1171
S'356723'
p1094
sI1172
S'5588253'
p1095
sI1173
S'13491503'
p1096
sI1174
S'14103889'
p1097
sI1175
S'2008227'
p1098
sI1176
S'4784432'
p1099
sI1177
S'13166495'
p1100
sI1178
S'8294525'
p1101
sI1179
S'11068670'
p1102
sI1180
S'9332872'
p1103
sI1181
S'7294225'
p1104
sI1182
S'729306'
p1105
sI1183
S'14426680'
p1106
sI1184
S'6269968'
p1107
sI1185
S'763932'
p1108
sI1186
S'635842'
p1109
sI1187
S'3383382'
p1110
sI1188
S'3534137'
p1111
sI1189
S'15531219'
p1112
sI1190
S'9411914'
p1113
sI1191
S'110739'
p1114
sI1192
S'16873739'
p1115
sI1193
S'3400412'
p1116
sI1194
S'3694441'
p1117
sI1195
S'8840959'
p1118
sI1196
S'12515372'
p1119
sI1197
S'4128450'
p1120
sI1198
S'11068011'
p1121
sI1199
S'161366'
p1122
sI1200
S'16068586'
p1123
sI1201
S'1487706'
p1124
sI1202
S'4879728'
p1125
sI1203
S'6311716'
p1126
sI1204
S'15447669'
p1127
sI1205
S'3368441'
p1128
sI1206
S'4479632'
p1129
sI1207
S'15034827'
p1130
sI1208
S'15034825'
p1131
sI1209
S'6384275'
p1132
sI1210
S'4793006'
p1133
sI1211
S'15338279'
p1134
sI1212
S'4632542'
p1135
sI1213
S'8866715'
p1136
sI1214
S'9809229'
p1137
sI1215
S'545651'
p1138
sI1216
S'8966224'
p1139
sI1217
S'7246794'
p1140
sI1218
S'310325'
p1141
sI1219
S'3010430'
p1142
sI1220
S'8054651'
p1143
sI1221
S'14733825'
p1144
sI1222
S'17006190'
p1145
sI1223
S'16545545'
p1146
sI1224
S'4470011'
p1147
sI1225
S'9167889'
p1148
sI1226
S'2686002'
p1149
sI1227
S'408133'
p1150
sI1228
S'15969106'
p1151
sI1229
S'9331214'
p1152
sI1230
S'7698190'
p1153
sI1231
S'436780'
p1154
sI1232
S'2310445'
p1155
sI1233
S'4014739'
p1156
sI1234
S'310220'
p1157
sI1235
S'4225569'
p1158
sI1236
S'13225764'
p1159
sI1237
S'6376345'
p1160
sI1238
S'8129669'
p1161
sI1239
S'90426'
p1162
sI1240
S'14221607'
p1163
sI1241
S'874683'
p1164
sI1242
S'3803622'
p1165
sI1243
S'5299177'
p1166
sI1244
S'9525610'
p1167
sI1245
S'3145484'
p1168
sI1246
S'16497215'
p1169
sI1247
S'322982'
p1170
sI1248
S'10635663'
p1171
sI1249
S'12854863'
p1172
sI1250
S'1286972'
p1173
sI1251
S'10411964'
p1174
sI1252
S'2751311'
p1175
sI1253
S'14915471'
p1176
sI1254
S'3293500'
p1177
sI1255
S'4614525'
p1178
sI1256
S'13001199'
p1179
sI1257
S'6462192'
p1180
sI1258
S'6101364'
p1181
sI1259
S'16314585'
p1182
sI1260
S'1183620'
p1183
sI1261
S'11416267'
p1184
sI1262
S'14758548'
p1185
sI1263
S'660016'
p1186
sI1264
S'5990467'
p1187
sI1265
S'13433027'
p1188
sI1266
S'9496094'
p1189
sI1267
S'3970345'
p1190
sI1268
S'1530386'
p1191
sI1269
S'4991235'
p1192
sI1270
S'10358712'
p1193
sI1271
S'13926463'
p1194
sI1272
S'297698'
p1195
sI1273
S'1835865'
p1196
sI1274
S'13674229'
p1197
sI1275
S'1902601'
p1198
sI1276
S'1096511'
p1199
sI1277
S'2398423'
p1200
sI1278
S'14386978'
p1201
sI1279
S'15374564'
p1202
sI1280
S'13250230'
p1203
sI1281
S'6901401'
p1204
sI1282
S'10050665'
p1205
sI1283
S'4755815'
p1206
sI1284
S'14299104'
p1207
sI1285
S'11126194'
p1208
sI1286
S'2061725'
p1209
sI1287
S'13004002'
p1210
sI1288
S'14992784'
p1211
sI1289
S'198478'
p1212
sI1290
S'1466534'
p1213
sI1291
S'14253041'
p1214
sI1292
S'892704'
p1215
sI1293
S'4046281'
p1216
sI1294
S'15433803'
p1217
sI1295
S'12308505'
p1218
sI1296
S'940116'
p1219
sI1297
S'914594'
p1220
sI1298
S'14448864'
p1221
sI1299
S'29187'
p1222
sI1300
S'15870127'
p1223
sI1301
S'4606838'
p1224
sI1302
S'13821045'
p1225
sI1303
S'8029807'
p1226
sI1304
S'1569444'
p1227
sI1305
S'7173619'
p1228
sI1306
S'5135121'
p1229
sI1307
S'16561770'
p1230
sI1308
S'11512962'
p1231
sI1309
S'1245714'
p1232
sI1310
S'4481295'
p1233
sI1311
S'3426149'
p1234
sI1312
S'13122161'
p1235
sI1313
S'1273660'
p1236
sI1314
S'2537745'
p1237
sI1315
S'676257'
p1238
sI1316
S'3987599'
p1239
sI1317
S'6932898'
p1240
sI1318
S'4545079'
p1241
sI1319
S'2087970'
p1242
sI1320
S'302238'
p1243
sI1321
S'10938544'
p1244
sI1322
S'157431'
p1245
sI1323
S'1046093'
p1246
sI1324
S'14491366'
p1247
sI1325
S'2026697'
p1248
sI1326
S'502146'
p1249
sI1327
S'816888'
p1250
sI1328
S'15206909'
p1251
sI1329
S'12055994'
p1252
sI1330
S'9392042'
p1253
sI1331
S'15831604'
p1254
sI1332
S'465277'
p1255
sI1333
S'291468'
p1256
sI1334
S'662387'
p1257
sI1335
S'758782'
p1258
sI1336
S'10686350'
p1259
sI1337
S'8368723'
p1260
sI1338
S'6644136'
p1261
sI1339
S'1459830'
p1262
sI1340
S'14024217'
p1263
sI1341
S'13466262'
p1264
sI1342
S'3468640'
p1265
sI1343
S'4320934'
p1266
sI1344
S'16360274'
p1267
sI1345
S'188674'
p1268
sI1346
S'1524017'
p1269
sI1347
S'13278166'
p1270
sI1348
S'15222972'
p1271
sI1349
S'9974491'
p1272
sI1350
S'9988434'
p1273
sI1351
S'12145887'
p1274
sI1352
S'12866207'
p1275
sI1353
S'6829746'
p1276
sI1354
S'15226875'
p1277
sI1355
S'8016725'
p1278
sI1356
S'7500390'
p1279
sI1357
S'10273251'
p1280
sI1358
S'15941716'
p1281
sI1359
S'16288650'
p1282
sI1360
S'14274748'
p1283
sI1361
S'825193'
p1284
sI1362
S'6042151'
p1285
sI1363
S'10167341'
p1286
sI1364
S'3031514'
p1287
sI1365
S'9299672'
p1288
sI1366
S'82638'
p1289
sI1367
S'13016417'
p1290
sI1368
S'4746336'
p1291
sI1369
S'12989767'
p1292
sI1370
S'8513839'
p1293
sI1371
S'13623671'
p1294
sI1372
S'13715661'
p1295
sI1373
S'9753364'
p1296
sI1374
S'3944233'
p1297
sI1375
S'8000640'
p1298
sI1376
S'2339096'
p1299
sI1377
S'16085227'
p1300
sI1378
S'5560235'
p1301
sI1379
S'5758234'
p1302
sI1380
S'2230762'
p1303
sI1381
S'3976991'
p1304
sI1382
S'11060328'
p1305
sI1383
S'1294421'
p1306
sI1384
S'4743216'
p1307
sI1385
S'13215966'
p1308
sI1386
S'3465972'
p1309
sI1387
S'6972554'
p1310
sI1388
S'11825038'
p1311
sI1389
S'795198'
p1312
sI1390
S'2460611'
p1313
sI1391
S'10185432'
p1314
sI1392
S'7047329'
p1315
sI1393
S'16422'
p1316
sI1394
S'10138870'
p1317
sI1395
S'396636'
p1318
sI1396
S'15482082'
p1319
sI1397
S'15024045'
p1320
sI1398
S'13749509'
p1321
sI1399
S'1949344'
p1322
sI1400
S'14935001'
p1323
sI1401
S'14841969'
p1324
sI1402
S'2017316'
p1325
sI1403
S'8870310'
p1326
sI1404
S'13328405'
p1327
sI1405
S'8111686'
p1328
sI1406
S'9361107'
p1329
sI1407
S'14835670'
p1330
sI1408
S'9947824'
p1331
sI1409
S'3999079'
p1332
sI1410
S'7460677'
p1333
sI1411
S'6391438'
p1334
sI1412
S'9382719'
p1335
sI1413
S'3061093'
p1336
sI1414
S'10165181'
p1337
sI1415
S'8972353'
p1338
sI1416
S'13217241'
p1339
sI1417
S'3354829'
p1340
sI1418
S'9215155'
p1341
sI1419
S'9474747'
p1342
sI1420
S'2079253'
p1343
sI1421
S'8438775'
p1344
sI1422
S'12145578'
p1345
sI1423
S'7678453'
p1346
sI1424
S'7678450'
p1347
sI1425
S'222913'
p1348
sI1426
S'9759525'
p1349
sI1427
S'8697936'
p1350
sI1428
S'2070612'
p1351
sI1429
S'6764316'
p1352
sI1430
S'234870'
p1353
sI1431
S'9059783'
p1354
sI1432
S'538590'
p1355
sI1433
S'15604499'
p1356
sI1434
S'10723819'
p1357
sI1435
S'16132147'
p1358
sI1436
S'15536769'
p1359
sI1437
S'282863'
p1360
sI1438
S'13510771'
p1361
sI1439
S'8616888'
p1362
sI1440
S'971158'
p1363
sI1441
S'2010787'
p1364
sI1442
S'14603806'
p1365
sI1443
S'1114466'
p1366
sI1444
S'9777387'
p1367
sI1445
S'11372330'
p1368
sI1446
S'4575364'
p1369
sI1447
S'11634797'
p1370
sI1448
S'5204019'
p1371
sI1449
S'6684189'
p1372
sI1450
S'16163588'
p1373
sI1451
S'213841'
p1374
sI1452
S'14330832'
p1375
sI1453
S'15875522'
p1376
sI1454
S'12581879'
p1377
sI1455
S'699060'
p1378
sI1456
S'13842069'
p1379
sI1457
S'4081926'
p1380
sI1458
S'3056451'
p1381
sI1459
S'2372591'
p1382
sI1460
S'9720768'
p1383
sI1461
S'3880588'
p1384
sI1462
S'4377929'
p1385
sI1463
S'8173434'
p1386
sI1464
S'8389905'
p1387
sI1465
S'5362041'
p1388
sI1466
S'3534443'
p1389
sI1467
S'5184562'
p1390
sI1468
S'14808279'
p1391
sI1469
S'3943811'
p1392
sI1470
S'82132'
p1393
sI1471
S'10246245'
p1394
sI1472
S'4734170'
p1395
sI1473
S'8035557'
p1396
sI1474
S'14990125'
p1397
sI1475
S'2019755'
p1398
sI1476
S'189787'
p1399
sI1477
S'13880222'
p1400
sI1478
S'16144342'
p1401
sI1479
S'14839943'
p1402
sI1480
S'9716905'
p1403
sI1481
S'14668043'
p1404
sI1482
S'16159444'
p1405
sI1483
S'14450212'
p1406
sI1484
S'6654863'
p1407
sI1485
S'6729054'
p1408
sI1486
S'5854872'
p1409
sI1487
S'229965'
p1410
sI1488
S'2007773'
p1411
sI1489
S'15141938'
p1412
sI1490
S'16523028'
p1413
sI1491
S'11791673'
p1414
sI1492
S'15100256'
p1415
sI1493
S'12497140'
p1416
sI1494
S'8077721'
p1417
sI1495
S'6758832'
p1418
sI1496
S'13987339'
p1419
sI1497
S'14214315'
p1420
sI1498
S'6882689'
p1421
sI1499
S'9048538'
p1422
sI1500
S'10205130'
p1423
sI1501
S'1307723'
p1424
sI1502
S'9754436'
p1425
sI1503
S'4734544'
p1426
sI1504
S'3542523'
p1427
sI1505
S'5756476'
p1428
sI1506
S'15358160'
p1429
sI1507
S'69262'
p1430
sI1508
S'8468615'
p1431
sI1509
S'12844700'
p1432
sI1510
S'12000617'
p1433
sI1511
S'1783326'
p1434
sI1512
S'5606066'
p1435
sI1513
S'796523'
p1436
sI1514
S'1148978'
p1437
sI1515
S'15798969'
p1438
sI1516
S'10476319'
p1439
sI1517
S'14832329'
p1440
sI1518
S'13449653'
p1441
sI1519
S'8445013'
p1442
sI1520
S'2725385'
p1443
sI1521
S'828553'
p1444
sI1522
S'1445542'
p1445
sI1523
S'16338348'
p1446
sI1524
S'15056339'
p1447
sI1525
S'4082357'
p1448
sI1526
S'12826965'
p1449
sI1527
S'1646910'
p1450
sI1528
S'15620823'
p1451
sI1529
S'4226098'
p1452
sI1530
S'3913635'
p1453
sI1531
S'10488112'
p1454
sI1532
S'9014530'
p1455
sI1533
S'13462575'
p1456
sI1534
S'9966717'
p1457
sI1535
S'2163550'
p1458
sI1536
S'14895267'
p1459
sI1537
S'6013186'
p1460
sI1538
S'3293528'
p1461
sI1539
S'8065861'
p1462
sI1540
S'7459928'
p1463
sI1541
S'253846'
p1464
sI1542
S'10115298'
p1465
sI1543
S'14341253'
p1466
sI1544
S'14264500'
p1467
sI1545
S'13361613'
p1468
sI1546
S'3812554'
p1469
sI1547
S'6796031'
p1470
sI1548
S'14291120'
p1471
sI1549
S'1445250'
p1472
sI1550
S'11359148'
p1473
sI1551
S'15149137'
p1474
sI1552
S'1742471'
p1475
sI1553
S'1987546'
p1476
sI1554
S'16003050'
p1477
sI1555
S'11909028'
p1478
sI1556
S'9577777'
p1479
sI1557
S'14297989'
p1480
sI1558
S'7714152'
p1481
sI1559
S'9759957'
p1482
sI1560
S'11421994'
p1483
sI1561
S'15973783'
p1484
sI1562
S'9545059'
p1485
sI1563
S'6185599'
p1486
sI1564
S'16271051'
p1487
sI1565
S'7881023'
p1488
sI1566
S'7775454'
p1489
sI1567
S'10312169'
p1490
sI1568
S'12113015'
p1491
sI1569
S'2038278'
p1492
sI1570
S'5955634'
p1493
sI1571
S'11584535'
p1494
sI1572
S'6493325'
p1495
sI1573
S'5707653'
p1496
sI1574
S'15595410'
p1497
sI1575
S'3246086'
p1498
sI1576
S'7762866'
p1499
sI1577
S'1222563'
p1500
sI1578
S'1186057'
p1501
sI1579
S'820801'
p1502
sI1580
S'6031904'
p1503
sI1581
S'478053'
p1504
sI1582
S'13317371'
p1505
sI1583
S'14388889'
p1506
sI1584
S'7675781'
p1507
sI1585
S'5785833'
p1508
sI1586
S'8605739'
p1509
sI1587
S'7512240'
p1510
sI1588
S'15588469'
p1511
sI1589
S'8472045'
p1512
sI1590
S'2255005'
p1513
sI1591
S'7915525'
p1514
sI1592
S'12756649'
p1515
sI1593
S'5230712'
p1516
sI1594
S'12206029'
p1517
sI1595
S'13693433'
p1518
sI1596
S'2164707'
p1519
sI1597
S'6004052'
p1520
sI1598
S'10855464'
p1521
sI1599
S'7452230'
p1522
sI1600
S'4616285'
p1523
sI1601
S'171562'
p1524
sI1602
S'15550357'
p1525
sI1603
S'7509362'
p1526
sI1604
S'13040171'
p1527
sI1605
S'1170712'
p1528
sI1606
S'15655711'
p1529
sI1607
S'3067277'
p1530
sI1608
S'8653999'
p1531
sI1609
S'847591'
p1532
sI1610
S'476983'
p1533
sI1611
S'8924504'
p1534
sI1612
S'661814'
p1535
sI1613
S'11402245'
p1536
sI1614
S'4517117'
p1537
sI1615
S'7385688'
p1538
sI1616
S'8250457'
p1539
sI1617
S'7546039'
p1540
sI1618
S'13311019'
p1541
sI1619
S'1514228'
p1542
sI1620
S'4430774'
p1543
sI1621
S'8281889'
p1544
sI1622
S'9794402'
p1545
sI1623
S'4737830'
p1546
sI1624
S'8664965'
p1547
sI1625
S'9269126'
p1548
sI1626
S'3826037'
p1549
sI1627
S'2145759'
p1550
sI1628
S'3395697'
p1551
sI1629
S'8327773'
p1552
sI1630
S'12232431'
p1553
sI1631
S'8729819'
p1554
sI1632
S'8007838'
p1555
sI1633
S'13878195'
p1556
sI1634
S'15758640'
p1557
sI1635
S'3798874'
p1558
sI1636
S'10387839'
p1559
sI1637
S'3847733'
p1560
sI1638
S'431865'
p1561
sI1639
S'2399434'
p1562
sI1640
S'777141'
p1563
sI1641
S'2744861'
p1564
sI1642
S'916311'
p1565
sI1643
S'15954250'
p1566
sI1644
S'3833541'
p1567
sI1645
S'5885373'
p1568
sI1646
S'12990286'
p1569
sI1647
S'7149452'
p1570
sI1648
S'14261749'
p1571
sI1649
S'7697425'
p1572
sI1650
S'7024079'
p1573
sI1651
S'13676601'
p1574
sI1652
S'7368190'
p1575
sI1653
S'13715313'
p1576
sI1654
S'14555440'
p1577
sI1655
S'13863999'
p1578
sI1656
S'7277878'
p1579
sI1657
S'9005771'
p1580
sI1658
S'6993502'
p1581
sI1659
S'8311762'
p1582
sI1660
S'2934692'
p1583
sI1661
S'3908094'
p1584
sI1662
S'9004798'
p1585
sI1663
S'1909648'
p1586
sI1664
S'4393519'
p1587
sI1665
S'14037459'
p1588
sI1666
S'10909265'
p1589
sI1667
S'3220443'
p1590
sI1668
S'3236977'
p1591
sI1669
S'9252835'
p1592
sI1670
S'10730693'
p1593
sI1671
S'8470974'
p1594
sI1672
S'10726217'
p1595
sI1673
S'10945632'
p1596
sI1674
S'4294546'
p1597
sI1675
S'16175482'
p1598
sI1676
S'13867104'
p1599
sI1677
S'16229583'
p1600
sI1678
S'4303600'
p1601
sI1679
S'9096381'
p1602
sI1680
S'250323'
p1603
sI1681
S'5173521'
p1604
sI1682
S'4137900'
p1605
sI1683
S'8704666'
p1606
sI1684
S'4292238'
p1607
sI1685
S'4423650'
p1608
sI1686
S'12231160'
p1609
sI1687
S'4183424'
p1610
sI1688
S'7511452'
p1611
sI1689
S'4518795'
p1612
sI1690
S'6184855'
p1613
sI1691
S'14745026'
p1614
sI1692
S'149777'
p1615
sI1693
S'6800274'
p1616
sI1694
S'11980791'
p1617
sI1695
S'4516939'
p1618
sI1696
S'5122899'
p1619
sI1697
S'13488'
p1620
sI1698
S'1281023'
p1621
sI1699
S'7748355'
p1622
sI1700
S'454188'
p1623
sI1701
S'16363747'
p1624
sI1702
S'9138319'
p1625
sI1703
S'14479761'
p1626
sI1704
S'7885044'
p1627
sI1705
S'3851623'
p1628
sI1706
S'269283'
p1629
sI1707
S'12232858'
p1630
sI1708
S'820146'
p1631
sI1709
S'801058'
p1632
sI1710
S'12356663'
p1633
sI1711
S'10354038'
p1634
sI1712
S'15235535'
p1635
sI1713
S'9184855'
p1636
sI1714
S'1436589'
p1637
sI1715
S'1716395'
p1638
sI1716
S'4325244'
p1639
sI1717
S'16424782'
p1640
sI1718
S'8133707'
p1641
sI1719
S'15115532'
p1642
sI1720
S'8292794'
p1643
sI1721
S'6795657'
p1644
sI1722
S'8627561'
p1645
sI1723
S'16488277'
p1646
sI1724
S'12446224'
p1647
sI1725
S'16898115'
p1648
sI1726
S'16990'
p1649
sI1727
S'13731898'
p1650
sI1728
S'115748'
p1651
sI1729
S'1652996'
p1652
sI1730
S'9230605'
p1653
sI1731
S'3776421'
p1654
sI1732
S'3325807'
p1655
sI1733
S'4244171'
p1656
sI1734
S'5018013'
p1657
sI1735
S'12726119'
p1658
sI1736
S'517654'
p1659
sI1737
S'5567361'
p1660
sI1738
S'8881765'
p1661
sI1739
S'1973934'
p1662
sI1740
S'14039050'
p1663
sI1741
S'12401559'
p1664
sI1742
S'15431617'
p1665
sI1743
S'12158766'
p1666
sI1744
S'2407196'
p1667
sI1745
S'17095066'
p1668
sI1746
S'9528733'
p1669
sI1747
S'1340982'
p1670
sI1748
S'16003588'
p1671
sI1749
S'16913562'
p1672
sI1750
S'7741297'
p1673
sI1751
S'5406187'
p1674
sI1752
S'13223398'
p1675
sI1753
S'13878292'
p1676
sI1754
S'16000178'
p1677
sI1755
S'17376200'
p1678
sI1756
S'15896274'
p1679
sI1757
S'15433617'
p1680
sI1758
S'2629046'
p1681
sI1759
S'8110'
p1682
sI1760
S'4165297'
p1683
sI1761
S'4844781'
p1684
sI1762
S'417685'
p1685
sI1763
S'13513223'
p1686
sI1764
S'12201917'
p1687
sI1765
S'10399663'
p1688
sI1766
S'13854483'
p1689
sI1767
S'4244479'
p1690
sI1768
S'3792354'
p1691
sI1769
S'4502834'
p1692
sI1770
S'1817510'
p1693
sI1771
S'13796187'
p1694
sI1772
S'508080'
p1695
sI1773
S'3440920'
p1696
sI1774
S'4564840'
p1697
sI1775
S'10156960'
p1698
sI1776
S'12844543'
p1699
sI1777
S'8860629'
p1700
sI1778
S'3012871'
p1701
sI1779
S'267425'
p1702
sI1780
S'13410545'
p1703
sI1781
S'13153856'
p1704
sI1782
S'706347'
p1705
sI1783
S'3401586'
p1706
sI1784
S'919830'
p1707
sI1785
S'14333236'
p1708
sI1786
S'1974685'
p1709
sI1787
S'6115098'
p1710
sI1788
S'5455261'
p1711
sI1789
S'7063711'
p1712
sI1790
S'10140164'
p1713
sI1791
S'9637937'
p1714
sI1792
S'6952692'
p1715
sI1793
S'7161868'
p1716
sI1794
S'13769949'
p1717
sI1795
S'10589684'
p1718
sI1796
S'15255254'
p1719
sI1797
S'7083273'
p1720
sI1798
S'12954177'
p1721
sI1799
S'2153173'
p1722
sI1800
S'4874958'
p1723
sI1801
S'16751768'
p1724
sI1802
S'5511036'
p1725
sI1803
S'14533666'
p1726
sI1804
S'873465'
p1727
sI1805
S'4725852'
p1728
sI1806
S'13565111'
p1729
sI1807
S'14322095'
p1730
sI1808
S'14205364'
p1731
sI1809
S'16067816'
p1732
sI1810
S'16224322'
p1733
sI1811
S'5124825'
p1734
sI1812
S'1755806'
p1735
sI1813
S'13785938'
p1736
sI1814
S'15054008'
p1737
sI1815
S'13638026'
p1738
sI1816
S'5149930'
p1739
sI1817
S'3743048'
p1740
sI1818
S'16652122'
p1741
sI1819
S'15602702'
p1742
sI1820
S'1908852'
p1743
sI1821
S'9168100'
p1744
sI1822
S'3902791'
p1745
sI1823
S'13698284'
p1746
sI1824
S'7783855'
p1747
sI1825
S'8101823'
p1748
sI1826
S'6957059'
p1749
sI1827
S'602533'
p1750
sI1828
S'15811924'
p1751
sI1829
S'162493'
p1752
sI1830
S'710290'
p1753
sI1831
S'2834341'
p1754
sI1832
S'11400480'
p1755
sI1833
S'3882682'
p1756
sI1834
S'1977888'
p1757
sI1835
S'3090922'
p1758
sI1836
S'3095348'
p1759
sI1837
S'10903239'
p1760
sI1838
S'1286933'
p1761
sI1839
S'10709249'
p1762
sI1840
S'16289973'
p1763
sI1841
S'1917286'
p1764
sI1842
S'7826906'
p1765
sI1843
S'9657'
p1766
sI1844
S'7775926'
p1767
sI1845
S'2169722'
p1768
sI1846
S'386799'
p1769
sI1847
S'9976626'
p1770
sI1848
S'10540876'
p1771
sI1849
S'8957166'
p1772
sI1850
S'6612744'
p1773
sI1851
S'13731150'
p1774
sI1852
S'13461855'
p1775
sI1853
S'15743151'
p1776
sI1854
S'8406689'
p1777
sI1855
S'8592390'
p1778
sI1856
S'5717674'
p1779
sI1857
S'14683039'
p1780
sI1858
S'7725496'
p1781
sI1859
S'13301698'
p1782
sI1860
S'15223434'
p1783
sI1861
S'9028013'
p1784
sI1862
S'13902591'
p1785
sI1863
S'3144135'
p1786
sI1864
S'13396285'
p1787
sI1865
S'6885805'
p1788
sI1866
S'13697734'
p1789
sI1867
S'6553895'
p1790
sI1868
S'3721036'
p1791
sI1869
S'3208747'
p1792
sI1870
S'3953585'
p1793
sI1871
S'11622794'
p1794
sI1872
S'11970867'
p1795
sI1873
S'16274854'
p1796
sI1874
S'8734314'
p1797
sI1875
S'4854417'
p1798
sI1876
S'262017'
p1799
sI1877
S'992276'
p1800
sI1878
S'9448955'
p1801
sI1879
S'7472513'
p1802
sI1880
S'62264'
p1803
sI1881
S'9365581'
p1804
sI1882
S'4164462'
p1805
sI1883
S'10609249'
p1806
sI1884
S'268549'
p1807
sI1885
S'13613450'
p1808
sI1886
S'6676383'
p1809
sI1887
S'13190773'
p1810
sI1888
S'15550805'
p1811
sI1889
S'14703733'
p1812
sI1890
S'6717390'
p1813
sI1891
S'16033071'
p1814
sI1892
S'3004348'
p1815
sI1893
S'840731'
p1816
sI1894
S'987329'
p1817
sI1895
S'9647558'
p1818
sI1896
S'12814991'
p1819
sI1897
S'7785451'
p1820
sI1898
S'3868100'
p1821
sI1899
S'4102936'
p1822
sI1900
S'13223095'
p1823
sI1901
S'8488082'
p1824
sI1902
S'6880182'
p1825
sI1903
S'1481907'
p1826
sI1904
S'16627548'
p1827
sI1905
S'115535'
p1828
sI1906
S'16226219'
p1829
sI1907
S'13386152'
p1830
sI1908
S'5225088'
p1831
sI1909
S'14577130'
p1832
sI1910
S'553370'
p1833
sI1911
S'4707057'
p1834
sI1912
S'6261461'
p1835
sI1913
S'9273431'
p1836
sI1914
S'6611592'
p1837
sI1915
S'2315738'
p1838
sI1916
S'14694588'
p1839
sI1917
S'12989500'
p1840
sI1918
S'778381'
p1841
sI1919
S'848087'
p1842
sI1920
S'10549054'
p1843
sI1921
S'8734174'
p1844
sI1922
S'9895587'
p1845
sI1923
S'13445020'
p1846
sI1924
S'11750621'
p1847
sI1925
S'16929145'
p1848
sI1926
S'14187533'
p1849
sI1927
S'1752112'
p1850
sI1928
S'13300645'
p1851
sI1929
S'2445715'
p1852
sI1930
S'4993422'
p1853
sI1931
S'306799'
p1854
sI1932
S'10225050'
p1855
sI1933
S'14291973'
p1856
sI1934
S'7772479'
p1857
sI1935
S'3937630'
p1858
sI1936
S'486902'
p1859
sI1937
S'1845249'
p1860
sI1938
S'8290278'
p1861
sI1939
S'322923'
p1862
sI1940
S'9841191'
p1863
sI1941
S'15421244'
p1864
sI1942
S'32331'
p1865
sI1943
S'13208685'
p1866
sI1944
S'3194049'
p1867
sI1945
S'14004264'
p1868
sI1946
S'880452'
p1869
sI1947
S'4174847'
p1870
sI1948
S'6334292'
p1871
sI1949
S'4694224'
p1872
sI1950
S'11016158'
p1873
sI1951
S'7672571'
p1874
sI1952
S'3738529'
p1875
sI1953
S'5340262'
p1876
sI1954
S'13656030'
p1877
sI1955
S'16180645'
p1878
sI1956
S'13246042'
p1879
sI1957
S'13912630'
p1880
sI1958
S'9778049'
p1881
sI1959
S'671402'
p1882
sI1960
S'4302685'
p1883
sI1961
S'12493522'
p1884
sI1962
S'6228061'
p1885
sI1963
S'9630295'
p1886
sI1964
S'1870021'
p1887
sI1965
S'1163484'
p1888
sI1966
S'8845982'
p1889
sI1967
S'9404508'
p1890
sI1968
S'4914545'
p1891
sI1969
S'5507371'
p1892
sI1970
S'15507375'
p1893
sI1971
S'2117802'
p1894
sI1972
S'13188856'
p1895
sI1973
S'4718152'
p1896
sI1974
S'13130122'
p1897
sI1975
S'12739910'
p1898
sI1976
S'11375631'
p1899
sI1977
S'7664692'
p1900
sI1978
S'8953522'
p1901
sI1979
S'12445316'
p1902
sI1980
S'15674321'
p1903
sI1981
S'741783'
p1904
sI1982
S'2546120'
p1905
sI1983
S'2974957'
p1906
sI1984
S'15288417'
p1907
sI1985
S'3376999'
p1908
sI1986
S'7547536'
p1909
sI1987
S'71384'
p1910
sI1988
S'10877774'
p1911
sI1989
S'15164526'
p1912
sI1990
S'2636643'
p1913
sI1991
S'62452'
p1914
sI1992
S'794281'
p1915
sI1993
S'4077702'
p1916
sI1994
S'6590549'
p1917
sI1995
S'14488812'
p1918
sI1996
S'1939283'
p1919
sI1997
S'903906'
p1920
sI1998
S'11963660'
p1921
sI1999
S'6031001'
p1922
sI2000
S'11316570'
p1923
sI2001
S'4653508'
p1924
sI2002
S'13332509'
p1925
sI2003
S'10249076'
p1926
sI2004
S'6005682'
p1927
sI2005
S'9586130'
p1928
sI2006
S'7484179'
p1929
sI2007
S'13018125'
p1930
sI2008
S'13122712'
p1931
sI2009
S'6747958'
p1932
sI2010
S'10071188'
p1933
sI2011
S'5693879'
p1934
sI2012
S'9029289'
p1935
sI2013
S'8906840'
p1936
sI2014
S'4369737'
p1937
sI2015
S'3791325'
p1938
sI2016
S'13547426'
p1939
sI2017
S'14575787'
p1940
sI2018
S'13066383'
p1941
sI2019
S'13992742'
p1942
sI2020
S'2515514'
p1943
sI2021
S'15553947'
p1944
sI2022
S'4823682'
p1945
sI2023
S'1776732'
p1946
sI2024
S'7818601'
p1947
sI2025
S'4012933'
p1948
sI2026
S'12190790'
p1949
sI2027
S'2960080'
p1950
sI2028
S'15385'
p1951
sI2029
S'13745898'
p1952
sI2030
S'729811'
p1953
sI2031
S'15003546'
p1954
sI2032
S'4757212'
p1955
sI2033
S'13019981'
p1956
sI2034
S'4862061'
p1957
sI2035
S'5434197'
p1958
sI2036
S'6380118'
p1959
sI2037
S'1571455'
p1960
sI2038
S'6689548'
p1961
sI2039
S'14121045'
p1962
sI2040
S'4137789'
p1963
sI2041
S'7592433'
p1964
sI2042
S'2057474'
p1965
sI2043
S'9080286'
p1966
sI2044
S'13914201'
p1967
sI2045
S'13218139'
p1968
sI2046
S'9924235'
p1969
sI2047
S'5326414'
p1970
sI2048
S'12813068'
p1971
sI2049
S'11046693'
p1972
sI2050
S'15051958'
p1973
sI2051
S'4264127'
p1974
sI2052
S'1895918'
p1975
sI2053
S'1767037'
p1976
sI2054
S'2051149'
p1977
sI2055
S'13378177'
p1978
sI2056
S'1903249'
p1979
sI2057
S'5934051'
p1980
sI2058
S'3738756'
p1981
sI2059
S'2055303'
p1982
sI2060
S'13123665'
p1983
sI2061
S'9881037'
p1984
sI2062
S'1728437'
p1985
sI2063
S'1920061'
p1986
sI2064
S'2110127'
p1987
sI2065
S'6480509'
p1988
sI2066
S'843712'
p1989
sI2067
S'14199290'
p1990
sI2068
S'14470437'
p1991
sI2069
S'1526741'
p1992
sI2070
S'5863088'
p1993
sI2071
S'953807'
p1994
sI2072
S'483505'
p1995
sI2073
S'2889019'
p1996
sI2074
S'14074362'
p1997
sI2075
S'19159'
p1998
sI2076
S'9903132'
p1999
sI2077
S'3832231'
p2000
sI2078
S'14403574'
p2001
sI2079
S'4742068'
p2002
sI2080
S'16074023'
p2003
sI2081
S'281521'
p2004
sI2082
S'12914570'
p2005
sI2083
S'5034136'
p2006
sI2084
S'3911632'
p2007
sI2085
S'16338301'
p2008
sI2086
S'14858777'
p2009
sI2087
S'4284031'
p2010
sI2088
S'14868703'
p2011
sI2089
S'7389120'
p2012
sI2090
S'4276714'
p2013
sI2091
S'9706724'
p2014
sI2092
S'592744'
p2015
sI2093
S'880156'
p2016
sI2094
S'3435196'
p2017
sI2095
S'5560024'
p2018
sI2096
S'15098786'
p2019
sI2097
S'3768977'
p2020
sI2098
S'13864653'
p2021
sI2099
S'16924526'
p2022
sI2100
S'13533524'
p2023
sI2101
S'12628500'
p2024
sI2102
S'3039110'
p2025
sI2103
S'9170572'
p2026
sI2104
S'17014274'
p2027
sI2105
S'5051065'
p2028
sI2106
S'16633625'
p2029
sI2107
S'4935653'
p2030
sI2108
S'1728853'
p2031
sI2109
S'8995042'
p2032
sI2110
S'15141364'
p2033
sI2111
S'805218'
p2034
sI2112
S'13597896'
p2035
sI2113
S'7264659'
p2036
sI2114
S'604913'
p2037
sI2115
S'3800332'
p2038
sI2116
S'260672'
p2039
sI2117
S'15157732'
p2040
sI2118
S'1520806'
p2041
sI2119
S'14524022'
p2042
sI2120
S'9031189'
p2043
sI2121
S'1822436'
p2044
sI2122
S'1773601'
p2045
sI2123
S'5029703'
p2046
sI2124
S'11650735'
p2047
sI2125
S'4786413'
p2048
sI2126
S'785097'
p2049
sI2127
S'1818411'
p2050
sI2128
S'15001550'
p2051
sI2129
S'13724284'
p2052
sI2130
S'14281865'
p2053
sI2131
S'8589444'
p2054
sI2132
S'4537198'
p2055
sI2133
S'1417215'
p2056
sI2134
S'3270428'
p2057
sI2135
S'14331846'
p2058
sI2136
S'10017458'
p2059
sI2137
S'13959100'
p2060
sI2138
S'3489666'
p2061
sI2139
S'6031948'
p2062
sI2140
S'13750797'
p2063
sI2141
S'5298427'
p2064
sI2142
S'13998843'
p2065
sI2143
S'7619039'
p2066
sI2144
S'6493181'
p2067
sI2145
S'9049582'
p2068
sI2146
S'10564420'
p2069
sI2147
S'16230255'
p2070
sI2148
S'12874443'
p2071
sI2149
S'596448'
p2072
sI2150
S'6524331'
p2073
sI2151
S'484312'
p2074
sI2152
S'13717248'
p2075
sI2153
S'8878181'
p2076
sI2154
S'2023081'
p2077
sI2155
S'4464508'
p2078
sI2156
S'3440226'
p2079
sI2157
S'7439092'
p2080
sI2158
S'5117339'
p2081
sI2159
S'12332789'
p2082
sI2160
S'11652262'
p2083
sI2161
S'8352032'
p2084
sI2162
S'15086101'
p2085
sI2163
S'5580236'
p2086
sI2164
S'15432445'
p2087
sI2165
S'12498361'
p2088
sI2166
S'246134'
p2089
sI2167
S'8127123'
p2090
sI2168
S'94783'
p2091
sI2169
S'6952888'
p2092
sI2170
S'1458995'
p2093
sI2171
S'5989927'
p2094
sI2172
S'12037967'
p2095
sI2173
S'893413'
p2096
sI2174
S'16498810'
p2097
sI2175
S'7148121'
p2098
sI2176
S'5362279'
p2099
sI2177
S'13770759'
p2100
sI2178
S'699348'
p2101
sI2179
S'16144596'
p2102
sI2180
S'14839848'
p2103
sI2181
S'6290301'
p2104
sI2182
S'11775347'
p2105
sI2183
S'15721028'
p2106
sI2184
S'970659'
p2107
sI2185
S'12899112'
p2108
sI2186
S'7089639'
p2109
sI2187
S'2083749'
p2110
sI2188
S'14755996'
p2111
sI2189
S'7774182'
p2112
sI2190
S'3967492'
p2113
sI2191
S'9278192'
p2114
sI2192
S'1271297'
p2115
sI2193
S'764052'
p2116
sI2194
S'9480841'
p2117
sI2195
S'7955984'
p2118
sI2196
S'16014654'
p2119
sI2197
S'1491991'
p2120
sI2198
S'11674081'
p2121
sI2199
S'2583811'
p2122
sI2200
S'3792523'
p2123
sI2201
S'10688178'
p2124
sI2202
S'12855923'
p2125
sI2203
S'9155212'
p2126
sI2204
S'1785187'
p2127
sI2205
S'9485301'
p2128
sI2206
S'611009'
p2129
sI2207
S'15433246'
p2130
sI2208
S'9652191'
p2131
sI2209
S'14365216'
p2132
sI2210
S'11674335'
p2133
sI2211
S'8292129'
p2134
sI2212
S'8908653'
p2135
sI2213
S'15657915'
p2136
sI2214
S'4564292'
p2137
sI2215
S'15055244'
p2138
sI2216
S'6302423'
p2139
sI2217
S'3831'
p2140
sI2218
S'9168809'
p2141
sI2219
S'14024900'
p2142
sI2220
S'14261705'
p2143
sI2221
S'16044615'
p2144
sI2222
S'9173061'
p2145
sI2223
S'15658982'
p2146
sI2224
S'9694633'
p2147
sI2225
S'13782540'
p2148
sI2226
S'10012551'
p2149
sI2227
S'12832437'
p2150
sI2228
S'3629141'
p2151
sI2229
S'12293138'
p2152
sI2230
S'15310417'
p2153
sI2231
S'7593556'
p2154
sI2232
S'9699745'
p2155
sI2233
S'9366256'
p2156
sI2234
S'6611314'
p2157
sI2235
S'4355934'
p2158
sI2236
S'7091014'
p2159
sI2237
S'430665'
p2160
sI2238
S'1923024'
p2161
sI2239
S'1722101'
p2162
sI2240
S'16406337'
p2163
sI2241
S'6326865'
p2164
sI2242
S'8815050'
p2165
sI2243
S'12353119'
p2166
sI2244
S'5409372'
p2167
sI2245
S'13827289'
p2168
sI2246
S'8160542'
p2169
sI2247
S'15985766'
p2170
sI2248
S'241538'
p2171
sI2249
S'593350'
p2172
sI2250
S'2023577'
p2173
sI2251
S'12181549'
p2174
sI2252
S'5557097'
p2175
sI2253
S'15056748'
p2176
sI2254
S'1093977'
p2177
sI2255
S'2041041'
p2178
sI2256
S'1392079'
p2179
sI2257
S'13333699'
p2180
sI2258
S'10658250'
p2181
sI2259
S'10411803'
p2182
sI2260
S'7020427'
p2183
sI2261
S'10537712'
p2184
sI2262
S'11164714'
p2185
sI2263
S'13687717'
p2186
sI2264
S'15067461'
p2187
sI2265
S'976167'
p2188
sI2266
S'14473014'
p2189
sI2267
S'12168087'
p2190
sI2268
S'13341955'
p2191
sI2269
S'6652353'
p2192
sI2270
S'14708934'
p2193
sI2271
S'7132370'
p2194
sI2272
S'13669891'
p2195
sI2273
S'1484031'
p2196
sI2274
S'3757178'
p2197
sI2275
S'821585'
p2198
sI2276
S'15983139'
p2199
sI2277
S'2611765'
p2200
sI2278
S'14972714'
p2201
sI2279
S'9541103'
p2202
sI2280
S'12623319'
p2203
sI2281
S'1535576'
p2204
sI2282
S'3800291'
p2205
sI2283
S'12245236'
p2206
sI2284
S'16599472'
p2207
sI2285
S'11691186'
p2208
sI2286
S'7564702'
p2209
sI2287
S'14571148'
p2210
sI2288
S'9444418'
p2211
sI2289
S'15481609'
p2212
sI2290
S'4439737'
p2213
sI2291
S'5181492'
p2214
sI2292
S'44221'
p2215
sI2293
S'16712101'
p2216
sI2294
S'7322'
p2217
sI2295
S'2673792'
p2218
sI2296
S'15676009'
p2219
sI2297
S'13856810'
p2220
sI2298
S'4537520'
p2221
sI2299
S'11481656'
p2222
sI2300
S'14022980'
p2223
sI2301
S'12609695'
p2224
sI2302
S'9548422'
p2225
sI2303
S'68900'
p2226
sI2304
S'3993392'
p2227
sI2305
S'16271513'
p2228
sI2306
S'1189378'
p2229
sI2307
S'15246976'
p2230
sI2308
S'16219202'
p2231
sI2309
S'13140622'
p2232
sI2310
S'11550211'
p2233
sI2311
S'9451860'
p2234
sI2312
S'33223'
p2235
sI2313
S'14335179'
p2236
sI2314
S'14532242'
p2237
sI2315
S'738008'
p2238
sI2316
S'11575073'
p2239
sI2317
S'8906176'
p2240
sI2318
S'8720684'
p2241
sI2319
S'9461851'
p2242
sI2320
S'5194382'
p2243
sI2321
S'3556615'
p2244
sI2322
S'16645254'
p2245
sI2323
S'10087874'
p2246
sI2324
S'1931855'
p2247
sI2325
S'10769752'
p2248
sI2326
S'1427518'
p2249
sI2327
S'8400115'
p2250
sI2328
S'16768303'
p2251
sI2329
S'3122027'
p2252
sI2330
S'12287890'
p2253
sI2331
S'7807146'
p2254
sI2332
S'2265827'
p2255
sI2333
S'4760085'
p2256
sI2334
S'14076631'
p2257
sI2335
S'8733620'
p2258
sI2336
S'11866301'
p2259
sI2337
S'2034359'
p2260
sI2338
S'15344308'
p2261
sI2339
S'6401500'
p2262
sI2340
S'15909370'
p2263
sI2341
S'13316073'
p2264
sI2342
S'16452803'
p2265
sI2343
S'505835'
p2266
sI2344
S'1810781'
p2267
sI2345
S'7194538'
p2268
sI2346
S'5810326'
p2269
sI2347
S'9457545'
p2270
sI2348
S'6269610'
p2271
sI2349
S'10674061'
p2272
sI2350
S'8174397'
p2273
sI2351
S'13920801'
p2274
sI2352
S'1025001'
p2275
sI2353
S'14465415'
p2276
sI2354
S'9758751'
p2277
sI2355
S'4878501'
p2278
sI2356
S'234184'
p2279
sI2357
S'15321861'
p2280
sI2358
S'1583653'
p2281
sI2359
S'3473305'
p2282
sI2360
S'16857025'
p2283
sI2361
S'8665205'
p2284
sI2362
S'1448735'
p2285
sI2363
S'12966225'
p2286
sI2364
S'4665192'
p2287
sI2365
S'4573897'
p2288
sI2366
S'16064442'
p2289
sI2367
S'1869878'
p2290
sI2368
S'15602953'
p2291
sI2369
S'15437080'
p2292
sI2370
S'5028490'
p2293
sI2371
S'13751335'
p2294
sI2372
S'12711875'
p2295
sI2373
S'15565058'
p2296
sI2374
S'10082168'
p2297
sI2375
S'13496080'
p2298
sI2376
S'1623431'
p2299
sI2377
S'1732866'
p2300
sI2378
S'9905076'
p2301
sI2379
S'4209988'
p2302
sI2380
S'7332196'
p2303
sI2381
S'9369630'
p2304
sI2382
S'13334879'
p2305
sI2383
S'12132772'
p2306
sI2384
S'5719742'
p2307
sI2385
S'6608246'
p2308
sI2386
S'485200'
p2309
sI2387
S'3456576'
p2310
sI2388
S'13589297'
p2311
sI2389
S'800918'
p2312
sI2390
S'861759'
p2313
sI2391
S'16457208'
p2314
sI2392
S'8740154'
p2315
sI2393
S'552502'
p2316
sI2394
S'8323944'
p2317
sI2395
S'5397568'
p2318
sI2396
S'5252345'
p2319
sI2397
S'5632551'
p2320
sI2398
S'8642428'
p2321
sI2399
S'9832641'
p2322
sI2400
S'7545750'
p2323
sI2401
S'32100'
p2324
sI2402
S'13858626'
p2325
sI2403
S'9533397'
p2326
sI2404
S'17241355'
p2327
sI2405
S'5279812'
p2328
sI2406
S'3213899'
p2329
sI2407
S'6363796'
p2330
sI2408
S'12204677'
p2331
sI2409
S'16425115'
p2332
sI2410
S'3850493'
p2333
sI2411
S'16290974'
p2334
sI2412
S'6866061'
p2335
sI2413
S'12051116'
p2336
sI2414
S'5391398'
p2337
sI2415
S'10709205'
p2338
sI2416
S'4614838'
p2339
sI2417
S'906038'
p2340
sI2418
S'12794690'
p2341
sI2419
S'9079960'
p2342
sI2420
S'7037791'
p2343
sI2421
S'13909144'
p2344
sI2422
S'15500135'
p2345
sI2423
S'3066652'
p2346
sI2424
S'11529598'
p2347
sI2425
S'5991556'
p2348
sI2426
S'11236273'
p2349
sI2427
S'15656593'
p2350
sI2428
S'12932670'
p2351
sI2429
S'9496372'
p2352
sI2430
S'716780'
p2353
sI2431
S'8474806'
p2354
sI2432
S'16405513'
p2355
sI2433
S'4081800'
p2356
sI2434
S'15969238'
p2357
sI2435
S'6004786'
p2358
sI2436
S'4464418'
p2359
sI2437
S'8033609'
p2360
sI2438
S'781397'
p2361
sI2439
S'4596378'
p2362
sI2440
S'3841825'
p2363
sI2441
S'14294439'
p2364
sI2442
S'13857827'
p2365
sI2443
S'9726043'
p2366
sI2444
S'7278762'
p2367
sI2445
S'1225110'
p2368
sI2446
S'7344066'
p2369
sI2447
S'752289'
p2370
sI2448
S'14479443'
p2371
sI2449
S'13063023'
p2372
sI2450
S'4783809'
p2373
sI2451
S'4644914'
p2374
sI2452
S'1584167'
p2375
sI2453
S'3273170'
p2376
sI2454
S'12914239'
p2377
sI2455
S'14237735'
p2378
sI2456
S'6821187'
p2379
sI2457
S'4961949'
p2380
sI2458
S'938022'
p2381
sI2459
S'1777905'
p2382
sI2460
S'3603979'
p2383
sI2461
S'5276908'
p2384
sI2462
S'544324'
p2385
sI2463
S'14900926'
p2386
sI2464
S'12971912'
p2387
sI2465
S'9540414'
p2388
sI2466
S'6185426'
p2389
sI2467
S'12389574'
p2390
sI2468
S'3251901'
p2391
sI2469
S'7410392'
p2392
sI2470
S'15423281'
p2393
sI2471
S'13082319'
p2394
sI2472
S'2695367'
p2395
sI2473
S'16663157'
p2396
sI2474
S'4891441'
p2397
sI2475
S'863209'
p2398
sI2476
S'13040801'
p2399
sI2477
S'15359068'
p2400
sI2478
S'4504813'
p2401
sI2479
S'15156627'
p2402
sI2480
S'6142960'
p2403
sI2481
S'8908636'
p2404
sI2482
S'15065696'
p2405
sI2483
S'2128761'
p2406
sI2484
S'9171260'
p2407
sI2485
S'7302362'
p2408
sI2486
S'620181'
p2409
sI2487
S'10929631'
p2410
sI2488
S'2629613'
p2411
sI2489
S'7784365'
p2412
sI2490
S'8845002'
p2413
sI2491
S'13281024'
p2414
sI2492
S'15741264'
p2415
sI2493
S'14164319'
p2416
sI2494
S'9575562'
p2417
sI2495
S'5797741'
p2418
sI2496
S'264323'
p2419
sI2497
S'17045669'
p2420
sI2498
S'995187'
p2421
sI2499
S'15106861'
p2422
sI2500
S'9906768'
p2423
sI2501
S'7709661'
p2424
sI2502
S'14538600'
p2425
sI2503
S'7368683'
p2426
sI2504
S'14854430'
p2427
sI2505
S'6002432'
p2428
sI2506
S'748277'
p2429
sI2507
S'12657888'
p2430
sI2508
S'2702489'
p2431
sI2509
S'14979837'
p2432
sI2510
S'4475128'
p2433
sI2511
S'15026994'
p2434
sI2512
S'3271052'
p2435
sI2513
S'4719825'
p2436
sI2514
S'3439664'
p2437
sI2515
S'4047791'
p2438
sI2516
S'11020841'
p2439
sI2517
S'9686167'
p2440
sI2518
S'776257'
p2441
sI2519
S'7937421'
p2442
sI2520
S'12693859'
p2443
sI2521
S'2123079'
p2444
sI2522
S'4752659'
p2445
sI2523
S'4747068'
p2446
sI2524
S'15256242'
p2447
sI2525
S'15663653'
p2448
sI2526
S'8523066'
p2449
sI2527
S'6199075'
p2450
sI2528
S'13714531'
p2451
sI2529
S'1499316'
p2452
sI2530
S'761835'
p2453
sI2531
S'7749069'
p2454
sI2532
S'17029902'
p2455
sI2533
S'9255049'
p2456
sI2534
S'15909136'
p2457
sI2535
S'16013146'
p2458
sI2536
S'10174662'
p2459
sI2537
S'152520'
p2460
sI2538
S'6822403'
p2461
sI2539
S'14300957'
p2462
sI2540
S'4592475'
p2463
sI2541
S'55565'
p2464
sI2542
S'15356673'
p2465
sI2543
S'9295059'
p2466
sI2544
S'10540910'
p2467
sI2545
S'11352494'
p2468
sI2546
S'6938827'
p2469
sI2547
S'966285'
p2470
sI2548
S'6128576'
p2471
sI2549
S'14472749'
p2472
sI2550
S'3080233'
p2473
sI2551
S'12623332'
p2474
sI2552
S'6014452'
p2475
sI2553
S'14042305'
p2476
sI2554
S'11657888'
p2477
sI2555
S'1535512'
p2478
sI2556
S'15100428'
p2479
sI2557
S'1538077'
p2480
sI2558
S'3351165'
p2481
sI2559
S'609213'
p2482
sI2560
S'5298896'
p2483
sI2561
S'9028916'
p2484
sI2562
S'13313576'
p2485
sI2563
S'8337536'
p2486
sI2564
S'1449546'
p2487
sI2565
S'7638216'
p2488
sI2566
S'5635192'
p2489
sI2567
S'278631'
p2490
sI2568
S'2447868'
p2491
sI2569
S'8444115'
p2492
sI2570
S'6704000'
p2493
sI2571
S'5081207'
p2494
sI2572
S'15003721'
p2495
sI2573
S'10253315'
p2496
sI2574
S'14588521'
p2497
sI2575
S'8151925'
p2498
sI2576
S'15059292'
p2499
sI2577
S'2719640'
p2500
sI2578
S'9180537'
p2501
sI2579
S'12970522'
p2502
sI2580
S'9555092'
p2503
sI2581
S'13397993'
p2504
sI2582
S'17073231'
p2505
sI2583
S'1924496'
p2506
sI2584
S'5770283'
p2507
sI2585
S'13206137'
p2508
sI2586
S'2922197'
p2509
sI2587
S'10331266'
p2510
sI2588
S'8192443'
p2511
sI2589
S'1467106'
p2512
sI2590
S'8294858'
p2513
sI2591
S'10270377'
p2514
sI2592
S'16134304'
p2515
sI2593
S'8408530'
p2516
sI2594
S'13602949'
p2517
sI2595
S'437352'
p2518
sI2596
S'10490620'
p2519
sI2597
S'9253112'
p2520
sI2598
S'3360896'
p2521
sI2599
S'16965968'
p2522
sI2600
S'7637791'
p2523
sI2601
S'15470101'
p2524
sI2602
S'12021392'
p2525
sI2603
S'14699'
p2526
sI2604
S'212178'
p2527
sI2605
S'792835'
p2528
sI2606
S'6959212'
p2529
sI2607
S'16936036'
p2530
sI2608
S'2804557'
p2531
sI2609
S'2870603'
p2532
sI2610
S'14960679'
p2533
sI2611
S'13122318'
p2534
sI2612
S'4136252'
p2535
sI2613
S'1511216'
p2536
sI2614
S'2228824'
p2537
sI2615
S'6677008'
p2538
sI2616
S'2837992'
p2539
sI2617
S'1541129'
p2540
sI2618
S'2501198'
p2541
sI2619
S'7670562'
p2542
sI2620
S'8704348'
p2543
sI2621
S'503460'
p2544
sI2622
S'9252303'
p2545
sI2623
S'13266298'
p2546
sI2624
S'14246641'
p2547
sI2625
S'15095269'
p2548
sI2626
S'4536931'
p2549
sI2627
S'14554162'
p2550
sI2628
S'15404578'
p2551
sI2629
S'16541361'
p2552
sI2630
S'8419216'
p2553
sI2631
S'6912419'
p2554
sI2632
S'1322432'
p2555
sI2633
S'16050276'
p2556
sI2634
S'453094'
p2557
sI2635
S'12835664'
p2558
sI2636
S'13559983'
p2559
sI2637
S'12930278'
p2560
sI2638
S'13650537'
p2561
sI2639
S'3474320'
p2562
sI2640
S'2066046'
p2563
sI2641
S'1225060'
p2564
sI2642
S'1231519'
p2565
sI2643
S'921585'
p2566
sI2644
S'13728712'
p2567
sI2645
S'1820668'
p2568
sI2646
S'6538963'
p2569
sI2647
S'15455678'
p2570
sI2648
S'11948586'
p2571
sI2649
S'15291113'
p2572
sI2650
S'12536976'
p2573
sI2651
S'11079022'
p2574
sI2652
S'16396119'
p2575
sI2653
S'10193392'
p2576
sI2654
S'16366905'
p2577
sI2655
S'65834'
p2578
sI2656
S'3507112'
p2579
sI2657
S'959788'
p2580
sI2658
S'873701'
p2581
sI2659
S'3727206'
p2582
sI2660
S'12602212'
p2583
sI2661
S'7714664'
p2584
sI2662
S'7649846'
p2585
sI2663
S'253590'
p2586
sI2664
S'923729'
p2587
sI2665
S'14777684'
p2588
sI2666
S'15410648'
p2589
sI2667
S'16427395'
p2590
sI2668
S'923725'
p2591
sI2669
S'741154'
p2592
sI2670
S'10188296'
p2593
sI2671
S'739815'
p2594
sI2672
S'7540104'
p2595
sI2673
S'7661915'
p2596
sI2674
S'12990789'
p2597
sI2675
S'15912452'
p2598
sI2676
S'10553095'
p2599
sI2677
S'1615083'
p2600
sI2678
S'11326009'
p2601
sI2679
S'7349437'
p2602
sI2680
S'14928336'
p2603
sI2681
S'3434284'
p2604
sI2682
S'6743889'
p2605
sI2683
S'13602433'
p2606
sI2684
S'7009152'
p2607
sI2685
S'16636318'
p2608
sI2686
S'786944'
p2609
sI2687
S'8869029'
p2610
sI2688
S'9368969'
p2611
sI2689
S'56894'
p2612
sI2690
S'84010'
p2613
sI2691
S'2950627'
p2614
sI2692
S'8781958'
p2615
sI2693
S'8972035'
p2616
sI2694
S'902482'
p2617
sI2695
S'9343634'
p2618
sI2696
S'875460'
p2619
sI2697
S'16586422'
p2620
sI2698
S'14724479'
p2621
sI2699
S'9996144'
p2622
sI2700
S'15552357'
p2623
sI2701
S'15915152'
p2624
sI2702
S'4000621'
p2625
sI2703
S'14043849'
p2626
sI2704
S'5802174'
p2627
sI2705
S'8653449'
p2628
sI2706
S'4700894'
p2629
sI2707
S'487816'
p2630
sI2708
S'9824463'
p2631
sI2709
S'1076326'
p2632
sI2710
S'9461803'
p2633
sI2711
S'14136127'
p2634
sI2712
S'9625826'
p2635
sI2713
S'12523287'
p2636
sI2714
S'278151'
p2637
sI2715
S'2715985'
p2638
sI2716
S'8687408'
p2639
sI2717
S'7454426'
p2640
sI2718
S'5251340'
p2641
sI2719
S'8338312'
p2642
sI2720
S'9514937'
p2643
sI2721
S'8731224'
p2644
sI2722
S'14730814'
p2645
sI2723
S'230194'
p2646
sI2724
S'6614105'
p2647
sI2725
S'9589226'
p2648
sI2726
S'12814685'
p2649
sI2727
S'7599569'
p2650
sI2728
S'6347548'
p2651
sI2729
S'9108196'
p2652
sI2730
S'10356916'
p2653
sI2731
S'591135'
p2654
sI2732
S'6185409'
p2655
sI2733
S'9750308'
p2656
sI2734
S'404502'
p2657
sI2735
S'3840000'
p2658
sI2736
S'9844509'
p2659
sI2737
S'8868841'
p2660
sI2738
S'14141693'
p2661
sI2739
S'8933153'
p2662
sI2740
S'6544243'
p2663
sI2741
S'6273185'
p2664
sI2742
S'16427668'
p2665
sI2743
S'14263034'
p2666
sI2744
S'1785141'
p2667
sI2745
S'15534897'
p2668
sI2746
S'550809'
p2669
sI2747
S'15680961'
p2670
sI2748
S'13282553'
p2671
sI2749
S'6964112'
p2672
sI2750
S'1567225'
p2673
sI2751
S'6001901'
p2674
sI2752
S'12560351'
p2675
sI2753
S'55467'
p2676
sI2754
S'3400359'
p2677
sI2755
S'2670522'
p2678
sI2756
S'10422846'
p2679
sI2757
S'855549'
p2680
sI2758
S'9578181'
p2681
sI2759
S'8077469'
p2682
sI2760
S'12114017'
p2683
sI2761
S'2660576'
p2684
sI2762
S'15788312'
p2685
sI2763
S'14882309'
p2686
sI2764
S'10012264'
p2687
sI2765
S'13114394'
p2688
sI2766
S'12390529'
p2689
sI2767
S'9608639'
p2690
sI2768
S'10205650'
p2691
sI2769
S'8499922'
p2692
sI2770
S'3143596'
p2693
sI2771
S'1842739'
p2694
sI2772
S'7526900'
p2695
sI2773
S'15940176'
p2696
sI2774
S'2919885'
p2697
sI2775
S'2010839'
p2698
sI2776
S'9402433'
p2699
sI2777
S'4163742'
p2700
sI2778
S'2957425'
p2701
sI2779
S'12380717'
p2702
sI2780
S'11496210'
p2703
sI2781
S'1632592'
p2704
sI2782
S'4410626'
p2705
sI2783
S'12710660'
p2706
sI2784
S'9280902'
p2707
sI2785
S'1036734'
p2708
sI2786
S'13861122'
p2709
sI2787
S'4211510'
p2710
sI2788
S'2877827'
p2711
sI2789
S'16207356'
p2712
sI2790
S'14182884'
p2713
sI2791
S'1634856'
p2714
sI2792
S'15671604'
p2715
sI2793
S'13199278'
p2716
sI2794
S'3704297'
p2717
sI2795
S'1078402'
p2718
sI2796
S'13651583'
p2719
sI2797
S'12855015'
p2720
sI2798
S'14026544'
p2721
sI2799
S'12587017'
p2722
sI2800
S'16453506'
p2723
sI2801
S'12310495'
p2724
sI2802
S'16004776'
p2725
sI2803
S'8699290'
p2726
sI2804
S'6974188'
p2727
sI2805
S'6711001'
p2728
sI2806
S'10701027'
p2729
sI2807
S'41959'
p2730
sI2808
S'498693'
p2731
sI2809
S'9486961'
p2732
sI2810
S'186871'
p2733
sI2811
S'7128695'
p2734
sI2812
S'3216335'
p2735
sI2813
S'15038552'
p2736
sI2814
S'10174646'
p2737
sI2815
S'14931156'
p2738
sI2816
S'11431871'
p2739
sI2817
S'7205992'
p2740
sI2818
S'13659055'
p2741
sI2819
S'13577386'
p2742
sI2820
S'14205847'
p2743
sI2821
S'9152965'
p2744
sI2822
S'3538609'
p2745
sI2823
S'62925'
p2746
sI2824
S'64376'
p2747
sI2825
S'17027468'
p2748
sI2826
S'9514721'
p2749
sI2827
S'15128745'
p2750
sI2828
S'188803'
p2751
sI2829
S'4964355'
p2752
sI2830
S'14722102'
p2753
sI2831
S'5797513'
p2754
sI2832
S'14550581'
p2755
sI2833
S'16391487'
p2756
sI2834
S'15648993'
p2757
sI2835
S'12601807'
p2758
sI2836
S'3095119'
p2759
sI2837
S'13811664'
p2760
sI2838
S'13781731'
p2761
sI2839
S'641113'
p2762
sI2840
S'9941603'
p2763
sI2841
S'15009565'
p2764
sI2842
S'14713931'
p2765
sI2843
S'4137415'
p2766
sI2844
S'16797910'
p2767
sI2845
S'7093540'
p2768
sI2846
S'11304069'
p2769
sI2847
S'9364043'
p2770
sI2848
S'4731162'
p2771
sI2849
S'7827377'
p2772
sI2850
S'4846877'
p2773
sI2851
S'11316590'
p2774
sI2852
S'15846191'
p2775
sI2853
S'13376196'
p2776
sI2854
S'14571451'
p2777
sI2855
S'1656585'
p2778
sI2856
S'13204919'
p2779
sI2857
S'545261'
p2780
sI2858
S'9184419'
p2781
sI2859
S'13952701'
p2782
sI2860
S'6093625'
p2783
sI2861
S'1552576'
p2784
sI2862
S'12019976'
p2785
sI2863
S'656535'
p2786
sI2864
S'15237360'
p2787
sI2865
S'14468570'
p2788
sI2866
S'4706241'
p2789
sI2867
S'4995083'
p2790
sI2868
S'3979628'
p2791
sI2869
S'5678143'
p2792
sI2870
S'10673295'
p2793
sI2871
S'12711351'
p2794
sI2872
S'6988794'
p2795
sI2873
S'7169627'
p2796
sI2874
S'16442809'
p2797
sI2875
S'13514680'
p2798
sI2876
S'15377300'
p2799
sI2877
S'1245977'
p2800
sI2878
S'3666146'
p2801
sI2879
S'13883393'
p2802
sI2880
S'1208953'
p2803
sI2881
S'12268056'
p2804
sI2882
S'17207706'
p2805
sI2883
S'15701479'
p2806
sI2884
S'1628564'
p2807
sI2885
S'14710115'
p2808
sI2886
S'3812222'
p2809
sI2887
S'9695552'
p2810
sI2888
S'2659961'
p2811
sI2889
S'7774722'
p2812
sI2890
S'3628190'
p2813
sI2891
S'9461238'
p2814
sI2892
S'13623891'
p2815
sI2893
S'3914773'
p2816
sI2894
S'14624902'
p2817
sI2895
S'9257300'
p2818
sI2896
S'5499562'
p2819
sI2897
S'825545'
p2820
sI2898
S'15200224'
p2821
sI2899
S'803286'
p2822
sI2900
S'11143462'
p2823
sI2901
S'16313932'
p2824
sI2902
S'16148051'
p2825
sI2903
S'747029'
p2826
sI2904
S'14040185'
p2827
sI2905
S'4869988'
p2828
sI2906
S'832947'
p2829
sI2907
S'872897'
p2830
sI2908
S'7601357'
p2831
sI2909
S'16468083'
p2832
sI2910
S'215560'
p2833
sI2911
S'4270769'
p2834
sI2912
S'490278'
p2835
sI2913
S'11875118'
p2836
sI2914
S'3048226'
p2837
sI2915
S'15603228'
p2838
sI2916
S'13094250'
p2839
sI2917
S'456280'
p2840
sI2918
S'65813'
p2841
sI2919
S'9300423'
p2842
sI2920
S'5021376'
p2843
sI2921
S'15943475'
p2844
sI2922
S'1040182'
p2845
sI2923
S'6778776'
p2846
sI2924
S'6471117'
p2847
sI2925
S'8213444'
p2848
sI2926
S'635662'
p2849
sI2927
S'3492910'
p2850
sI2928
S'6044964'
p2851
sI2929
S'7181242'
p2852
sI2930
S'7364008'
p2853
sI2931
S'3611813'
p2854
sI2932
S'5557135'
p2855
sI2933
S'1645667'
p2856
sI2934
S'15122925'
p2857
sI2935
S'898737'
p2858
sI2936
S'670212'
p2859
sI2937
S'15890547'
p2860
sI2938
S'12571731'
p2861
sI2939
S'13562613'
p2862
sI2940
S'15247747'
p2863
sI2941
S'15507292'
p2864
sI2942
S'7801'
p2865
sI2943
S'12299794'
p2866
sI2944
S'7593985'
p2867
sI2945
S'744418'
p2868
sI2946
S'7883220'
p2869
sI2947
S'5279859'
p2870
sI2948
S'16525691'
p2871
sI2949
S'8548971'
p2872
sI2950
S'14322678'
p2873
sI2951
S'13451786'
p2874
sI2952
S'10038776'
p2875
sI2953
S'8168619'
p2876
sI2954
S'13142059'
p2877
sI2955
S'6364807'
p2878
sI2956
S'877135'
p2879
sI2957
S'669613'
p2880
sI2958
S'7526715'
p2881
sI2959
S'15782593'
p2882
sI2960
S'3215660'
p2883
sI2961
S'15357247'
p2884
sI2962
S'12736073'
p2885
sI2963
S'2134173'
p2886
sI2964
S'17014341'
p2887
sI2965
S'11658782'
p2888
sI2966
S'9475176'
p2889
sI2967
S'14290760'
p2890
sI2968
S'10887262'
p2891
sI2969
S'14293733'
p2892
sI2970
S'11636696'
p2893
sI2971
S'16023171'
p2894
sI2972
S'1932459'
p2895
sI2973
S'7116799'
p2896
sI2974
S'818337'
p2897
sI2975
S'29013'
p2898
sI2976
S'5121'
p2899
sI2977
S'9452728'
p2900
sI2978
S'12292409'
p2901
sI2979
S'5036261'
p2902
sI2980
S'4958223'
p2903
sI2981
S'9806373'
p2904
sI2982
S'5871759'
p2905
sI2983
S'3989564'
p2906
sI2984
S'12821248'
p2907
sI2985
S'4060446'
p2908
sI2986
S'197942'
p2909
sI2987
S'1919647'
p2910
sI2988
S'3835681'
p2911
sI2989
S'10941762'
p2912
sI2990
S'14505680'
p2913
sI2991
S'638894'
p2914
sI2992
S'751913'
p2915
sI2993
S'15706724'
p2916
sI2994
S'9856426'
p2917
sI2995
S'751915'
p2918
sI2996
S'2653644'
p2919
sI2997
S'8772654'
p2920
sI2998
S'10550240'
p2921
sI2999
S'4932714'
p2922
sI3000
S'4182844'
p2923
sI3001
S'15433592'
p2924
sI3002
S'14917475'
p2925
sI3003
S'106457'
p2926
sI3004
S'16544251'
p2927
sI3005
S'3519515'
p2928
sI3006
S'6901734'
p2929
sI3007
S'15195878'
p2930
sI3008
S'689329'
p2931
sI3009
S'13639595'
p2932
sI3010
S'2022267'
p2933
sI3011
S'8276961'
p2934
sI3012
S'16444320'
p2935
sI3013
S'4453907'
p2936
sI3014
S'10084178'
p2937
sI3015
S'7713509'
p2938
sI3016
S'15827538'
p2939
sI3017
S'14252531'
p2940
sI3018
S'13633299'
p2941
sI3019
S'3534012'
p2942
sI3020
S'9607855'
p2943
sI3021
S'13041392'
p2944
sI3022
S'3368609'
p2945
sI3023
S'14952486'
p2946
sI3024
S'14398950'
p2947
sI3025
S'6969425'
p2948
sI3026
S'10133128'
p2949
sI3027
S'6624467'
p2950
sI3028
S'287845'
p2951
sI3029
S'16647952'
p2952
sI3030
S'3698241'
p2953
sI3031
S'13667739'
p2954
sI3032
S'1284776'
p2955
sI3033
S'13530498'
p2956
sI3034
S'11291559'
p2957
sI3035
S'131747'
p2958
sI3036
S'9740264'
p2959
sI3037
S'14080022'
p2960
sI3038
S'3833538'
p2961
sI3039
S'16412449'
p2962
sI3040
S'9926917'
p2963
sI3041
S'7816930'
p2964
sI3042
S'1443077'
p2965
sI3043
S'3241882'
p2966
sI3044
S'7972210'
p2967
sI3045
S'245544'
p2968
sI3046
S'6038392'
p2969
sI3047
S'6923161'
p2970
sI3048
S'593000'
p2971
sI3049
S'13754011'
p2972
sI3050
S'5300082'
p2973
sI3051
S'13979270'
p2974
sI3052
S'13971160'
p2975
sI3053
S'428226'
p2976
sI3054
S'12580288'
p2977
sI3055
S'8632393'
p2978
sI3056
S'8905011'
p2979
sI3057
S'303851'
p2980
sI3058
S'204833'
p2981
sI3059
S'6247046'
p2982
sI3060
S'14943737'
p2983
sI3061
S'10472004'
p2984
sI3062
S'15340854'
p2985
sI3063
S'8683858'
p2986
sI3064
S'8737487'
p2987
sI3065
S'472381'
p2988
sI3066
S'15611547'
p2989
sI3067
S'404923'
p2990
sI3068
S'4800866'
p2991
sI3069
S'13176134'
p2992
sI3070
S'10522830'
p2993
sI3071
S'6079079'
p2994
sI3072
S'1018195'
p2995
sI3073
S'12186431'
p2996
sI3074
S'17226'
p2997
sI3075
S'14301573'
p2998
sI3076
S'10055149'
p2999
sI3077
S'8256930'
p3000
sI3078
S'12780475'
p3001
sI3079
S'4857055'
p3002
sI3080
S'153780'
p3003
sI3081
S'442649'
p3004
sI3082
S'1937761'
p3005
sI3083
S'12972533'
p3006
sI3084
S'13397167'
p3007
sI3085
S'13397164'
p3008
sI3086
S'11873676'
p3009
sI3087
S'6822443'
p3010
sI3088
S'14841128'
p3011
sI3089
S'4047932'
p3012
sI3090
S'494208'
p3013
sI3091
S'12538836'
p3014
sI3092
S'9347368'
p3015
sI3093
S'12863299'
p3016
sI3094
S'11148990'
p3017
sI3095
S'8001916'
p3018
sI3096
S'8614388'
p3019
sI3097
S'5054397'
p3020
sI3098
S'5967489'
p3021
sI3099
S'6208796'
p3022
sI3100
S'152783'
p3023
sI3101
S'7859932'
p3024
sI3102
S'767397'
p3025
sI3103
S'900383'
p3026
sI3104
S'16085843'
p3027
sI3105
S'602070'
p3028
sI3106
S'1925859'
p3029
sI3107
S'5816154'
p3030
sI3108
S'9343466'
p3031
sI3109
S'13623275'
p3032
sI3110
S'14555866'
p3033
sI3111
S'1256768'
p3034
sI3112
S'8439758'
p3035
sI3113
S'15271897'
p3036
sI3114
S'13843006'
p3037
sI3115
S'6163758'
p3038
sI3116
S'14338437'
p3039
sI3117
S'15646114'
p3040
sI3118
S'3838416'
p3041
sI3119
S'6973286'
p3042
sI3120
S'619471'
p3043
sI3121
S'1856027'
p3044
sI3122
S'4786139'
p3045
sI3123
S'6771374'
p3046
sI3124
S'944049'
p3047
sI3125
S'1026531'
p3048
sI3126
S'6298154'
p3049
sI3127
S'1179080'
p3050
sI3128
S'1186153'
p3051
sI3129
S'11322591'
p3052
sI3130
S'893556'
p3053
sI3131
S'9434801'
p3054
sI3132
S'6479559'
p3055
sI3133
S'9002096'
p3056
sI3134
S'4726477'
p3057
sI3135
S'9296077'
p3058
sI3136
S'10017359'
p3059
sI3137
S'4355326'
p3060
sI3138
S'677162'
p3061
sI3139
S'3120957'
p3062
sI3140
S'1433326'
p3063
sI3141
S'6038470'
p3064
sI3142
S'16288718'
p3065
sI3143
S'17283829'
p3066
sI3144
S'1934447'
p3067
sI3145
S'9413861'
p3068
sI3146
S'2788298'
p3069
sI3147
S'13136912'
p3070
sI3148
S'269889'
p3071
sI3149
S'5989141'
p3072
sI3150
S'7272530'
p3073
sI3151
S'9904223'
p3074
sI3152
S'8843995'
p3075
sI3153
S'7785655'
p3076
sI3154
S'524182'
p3077
sI3155
S'15832932'
p3078
sI3156
S'8098925'
p3079
sI3157
S'9460657'
p3080
sI3158
S'1223755'
p3081
sI3159
S'8588016'
p3082
sI3160
S'2717461'
p3083
sI3161
S'16368430'
p3084
sI3162
S'8144148'
p3085
sI3163
S'9393884'
p3086
sI3164
S'13316545'
p3087
sI3165
S'8193862'
p3088
sI3166
S'13282587'
p3089
sI3167
S'14332083'
p3090
sI3168
S'14182668'
p3091
sI3169
S'7633057'
p3092
sI3170
S'13389756'
p3093
sI3171
S'13216067'
p3094
sI3172
S'8969760'
p3095
sI3173
S'6836515'
p3096
sI3174
S'8068363'
p3097
sI3175
S'8507643'
p3098
sI3176
S'2663904'
p3099
sI3177
S'3775259'
p3100
sI3178
S'12628117'
p3101
sI3179
S'1344446'
p3102
sI3180
S'9739230'
p3103
sI3181
S'13910977'
p3104
sI3182
S'11712752'
p3105
sI3183
S'12223531'
p3106
sI3184
S'1791502'
p3107
sI3185
S'10355818'
p3108
sI3186
S'1542279'
p3109
sI3187
S'8749247'
p3110
sI3188
S'3808119'
p3111
sI3189
S'4773071'
p3112
sI3190
S'14708057'
p3113
sI3191
S'13529037'
p3114
sI3192
S'14685276'
p3115
sI3193
S'16079924'
p3116
sI3194
S'3420546'
p3117
sI3195
S'7035142'
p3118
sI3196
S'15716189'
p3119
sI3197
S'15081206'
p3120
sI3198
S'8112802'
p3121
sI3199
S'7381816'
p3122
sI3200
S'7620355'
p3123
sI3201
S'14056526'
p3124
sI3202
S'13004484'
p3125
sI3203
S'15301517'
p3126
sI3204
S'6712579'
p3127
sI3205
S'9731134'
p3128
sI3206
S'7319791'
p3129
sI3207
S'631747'
p3130
sI3208
S'276370'
p3131
sI3209
S'15543169'
p3132
sI3210
S'7770735'
p3133
sI3211
S'10107689'
p3134
sI3212
S'9050105'
p3135
sI3213
S'6079197'
p3136
sI3214
S'8010446'
p3137
sI3215
S'15444738'
p3138
sI3216
S'9575049'
p3139
sI3217
S'196010'
p3140
sI3218
S'7749233'
p3141
sI3219
S'13340925'
p3142
sI3220
S'8948898'
p3143
sI3221
S'2553391'
p3144
sI3222
S'6622792'
p3145
sI3223
S'9635981'
p3146
sI3224
S'6662487'
p3147
sI3225
S'8520094'
p3148
sI3226
S'8915802'
p3149
sI3227
S'8590663'
p3150
sI3228
S'4047638'
p3151
sI3229
S'7482970'
p3152
sI3230
S'799945'
p3153
sI3231
S'11672400'
p3154
sI3232
S'7206568'
p3155
sI3233
S'5856760'
p3156
sI3234
S'1717226'
p3157
sI3235
S'6854404'
p3158
sI3236
S'13417863'
p3159
sI3237
S'7969111'
p3160
sI3238
S'393094'
p3161
sI3239
S'3174292'
p3162
sI3240
S'6276737'
p3163
sI3241
S'9915643'
p3164
sI3242
S'15367894'
p3165
sI3243
S'4533140'
p3166
sI3244
S'832096'
p3167
sI3245
S'1559912'
p3168
sI3246
S'1086640'
p3169
sI3247
S'13348600'
p3170
sI3248
S'16148989'
p3171
sI3249
S'5046894'
p3172
sI3250
S'6723500'
p3173
sI3251
S'2096968'
p3174
sI3252
S'9759444'
p3175
sI3253
S'4456555'
p3176
sI3254
S'6936794'
p3177
sI3255
S'781486'
p3178
sI3256
S'808836'
p3179
sI3257
S'17052'
p3180
sI3258
S'9452700'
p3181
sI3259
S'7125385'
p3182
sI3260
S'1286372'
p3183
sI3261
S'2033866'
p3184
sI3262
S'5107'
p3185
sI3263
S'9835350'
p3186
sI3264
S'5706340'
p3187
sI3265
S'13603873'
p3188
sI3266
S'12476212'
p3189
sI3267
S'8072371'
p3190
sI3268
S'7581611'
p3191
sI3269
S'16337106'
p3192
sI3270
S'12836280'
p3193
sI3271
S'3967145'
p3194
sI3272
S'13525308'
p3195
sI3273
S'15509545'
p3196
sI3274
S'12481814'
p3197
sI3275
S'9047816'
p3198
sI3276
S'16597060'
p3199
sI3277
S'256328'
p3200
sI3278
S'16916450'
p3201
sI3279
S'3602534'
p3202
sI3280
S'1646432'
p3203
sI3281
S'10231294'
p3204
sI3282
S'9707531'
p3205
sI3283
S'7630422'
p3206
sI3284
S'12777166'
p3207
sI3285
S'17141790'
p3208
sI3286
S'9876492'
p3209
sI3287
S'14198179'
p3210
sI3288
S'84417'
p3211
sI3289
S'12804309'
p3212
sI3290
S'4127402'
p3213
sI3291
S'4686821'
p3214
sI3292
S'16282648'
p3215
sI3293
S'4443694'
p3216
sI3294
S'14648838'
p3217
sI3295
S'9003930'
p3218
sI3296
S'3073195'
p3219
sI3297
S'495651'
p3220
sI3298
S'4142934'
p3221
sI3299
S'10707758'
p3222
sI3300
S'10135896'
p3223
sI3301
S'5986444'
p3224
sI3302
S'7017123'
p3225
sI3303
S'3664439'
p3226
sI3304
S'278197'
p3227
sI3305
S'9960561'
p3228
sI3306
S'14838972'
p3229
sI3307
S'14024180'
p3230
sI3308
S'2226305'
p3231
sI3309
S'14522699'
p3232
sI3310
S'12489313'
p3233
sI3311
S'16054869'
p3234
sI3312
S'2093455'
p3235
sI3313
S'5934255'
p3236
sI3314
S'6326410'
p3237
sI3315
S'12885815'
p3238
sI3316
S'953437'
p3239
sI3317
S'8369701'
p3240
sI3318
S'13914446'
p3241
sI3319
S'14549287'
p3242
sI3320
S'970302'
p3243
sI3321
S'7309611'
p3244
sI3322
S'8234510'
p3245
sI3323
S'4340161'
p3246
sI3324
S'5612772'
p3247
sI3325
S'16435112'
p3248
sI3326
S'6134199'
p3249
sI3327
S'259438'
p3250
sI3328
S'13490397'
p3251
sI3329
S'4541080'
p3252
sI3330
S'6438456'
p3253
sI3331
S'9748739'
p3254
sI3332
S'5318322'
p3255
sI3333
S'15307748'
p3256
sI3334
S'8866675'
p3257
sI3335
S'16253989'
p3258
sI3336
S'7518202'
p3259
sI3337
S'9045427'
p3260
sI3338
S'856440'
p3261
sI3339
S'786685'
p3262
sI3340
S'7596900'
p3263
sI3341
S'9172192'
p3264
sI3342
S'6354980'
p3265
sI3343
S'15392158'
p3266
sI3344
S'158061'
p3267
sI3345
S'9865812'
p3268
sI3346
S'912721'
p3269
sI3347
S'11204939'
p3270
sI3348
S'9821513'
p3271
sI3349
S'594036'
p3272
sI3350
S'15990320'
p3273
sI3351
S'7388240'
p3274
sI3352
S'2112808'
p3275
sI3353
S'7252174'
p3276
sI3354
S'15844840'
p3277
sI3355
S'16808899'
p3278
sI3356
S'6383557'
p3279
sI3357
S'14084323'
p3280
sI3358
S'5488307'
p3281
sI3359
S'13312982'
p3282
sI3360
S'263251'
p3283
sI3361
S'12292045'
p3284
sI3362
S'4874363'
p3285
sI3363
S'7148721'
p3286
sI3364
S'3370103'
p3287
sI3365
S'1313258'
p3288
sI3366
S'5233345'
p3289
sI3367
S'13743929'
p3290
sI3368
S'3344815'
p3291
sI3369
S'13711904'
p3292
sI3370
S'14461185'
p3293
sI3371
S'5525206'
p3294
sI3372
S'8009332'
p3295
sI3373
S'6249816'
p3296
sI3374
S'4566989'
p3297
sI3375
S'11829459'
p3298
sI3376
S'5916063'
p3299
sI3377
S'6627553'
p3300
sI3378
S'6900127'
p3301
sI3379
S'5018864'
p3302
sI3380
S'5626601'
p3303
sI3381
S'1530561'
p3304
sI3382
S'990171'
p3305
sI3383
S'15560394'
p3306
sI3384
S'13810048'
p3307
sI3385
S'2918393'
p3308
sI3386
S'902709'
p3309
sI3387
S'492977'
p3310
sI3388
S'303725'
p3311
sI3389
S'274062'
p3312
sI3390
S'1048190'
p3313
sI3391
S'13724675'
p3314
sI3392
S'12054152'
p3315
sI3393
S'14051670'
p3316
sI3394
S'2036105'
p3317
sI3395
S'791191'
p3318
sI3396
S'14375661'
p3319
sI3397
S'12955346'
p3320
sI3398
S'4694228'
p3321
sI3399
S'9092557'
p3322
sI3400
S'387377'
p3323
sI3401
S'16014623'
p3324
sI3402
S'15411945'
p3325
sI3403
S'6124097'
p3326
sI3404
S'10415505'
p3327
sI3405
S'4678568'
p3328
sI3406
S'5279778'
p3329
sI3407
S'13432851'
p3330
sI3408
S'4303825'
p3331
sI3409
S'13115525'
p3332
sI3410
S'53477'
p3333
sI3411
S'10014975'
p3334
sI3412
S'6106273'
p3335
sI3413
S'14966494'
p3336
sI3414
S'5590718'
p3337
sI3415
S'9605039'
p3338
sI3416
S'10068386'
p3339
sI3417
S'15952339'
p3340
sI3418
S'8234740'
p3341
sI3419
S'13998985'
p3342
sI3420
S'7806322'
p3343
sI3421
S'14430145'
p3344
sI3422
S'4977716'
p3345
sI3423
S'1758500'
p3346
sI3424
S'302057'
p3347
sI3425
S'698132'
p3348
sI3426
S'4145018'
p3349
sI3427
S'8384981'
p3350
sI3428
S'3740914'
p3351
sI3429
S'223930'
p3352
sI3430
S'13822434'
p3353
sI3431
S'2152612'
p3354
sI3432
S'9793250'
p3355
sI3433
S'13031546'
p3356
sI3434
S'14715325'
p3357
sI3435
S'16308150'
p3358
sI3436
S'14731469'
p3359
sI3437
S'16087972'
p3360
sI3438
S'714028'
p3361
sI3439
S'12138634'
p3362
sI3440
S'16272640'
p3363
sI3441
S'11601634'
p3364
sI3442
S'12952523'
p3365
sI3443
S'8793503'
p3366
sI3444
S'6966472'
p3367
sI3445
S'775447'
p3368
sI3446
S'9707498'
p3369
sI3447
S'6520350'
p3370
sI3448
S'14886702'
p3371
sI3449
S'13317969'
p3372
sI3450
S'15133923'
p3373
sI3451
S'9560034'
p3374
sI3452
S'1099244'
p3375
sI3453
S'9716123'
p3376
sI3454
S'4757941'
p3377
sI3455
S'747605'
p3378
sI3456
S'9250731'
p3379
sI3457
S'12737735'
p3380
sI3458
S'283550'
p3381
sI3459
S'5811500'
p3382
sI3460
S'13876809'
p3383
sI3461
S'10039975'
p3384
sI3462
S'4350952'
p3385
sI3463
S'1655390'
p3386
sI3464
S'13952384'
p3387
sI3465
S'9409391'
p3388
sI3466
S'12283514'
p3389
sI3467
S'6636968'
p3390
sI3468
S'4045248'
p3391
sI3469
S'13446870'
p3392
sI3470
S'16392085'
p3393
sI3471
S'9887763'
p3394
sI3472
S'3093240'
p3395
sI3473
S'13410857'
p3396
sI3474
S'8362098'
p3397
sI3475
S'7851219'
p3398
sI3476
S'7646832'
p3399
sI3477
S'14361380'
p3400
sI3478
S'13987933'
p3401
sI3479
S'6511866'
p3402
sI3480
S'9349221'
p3403
sI3481
S'15975239'
p3404
sI3482
S'9547118'
p3405
sI3483
S'10477683'
p3406
sI3484
S'15300916'
p3407
sI3485
S'13548101'
p3408
sI3486
S'13970606'
p3409
sI3487
S'638218'
p3410
sI3488
S'12304163'
p3411
sI3489
S'15230'
p3412
sI3490
S'15534137'
p3413
sI3491
S'2983952'
p3414
sI3492
S'14230982'
p3415
sI3493
S'3869779'
p3416
sI3494
S'9678327'
p3417
sI3495
S'1407586'
p3418
sI3496
S'2627737'
p3419
sI3497
S'8367572'
p3420
sI3498
S'7871858'
p3421
sI3499
S'10156290'
p3422
sI3500
S'292800'
p3423
sI3501
S'2088389'
p3424
sI3502
S'7161718'
p3425
sI3503
S'1306749'
p3426
sI3504
S'6421799'
p3427
sI3505
S'9392095'
p3428
sI3506
S'7902291'
p3429
sI3507
S'880424'
p3430
sI3508
S'6094046'
p3431
sI3509
S'643948'
p3432
sI3510
S'2357070'
p3433
sI3511
S'499778'
p3434
sI3512
S'9990560'
p3435
sI3513
S'13333287'
p3436
sI3514
S'1475631'
p3437
sI3515
S'6718383'
p3438
sI3516
S'8564421'
p3439
sI3517
S'14319203'
p3440
sI3518
S'15148061'
p3441
sI3519
S'2420026'
p3442
sI3520
S'3083197'
p3443
sI3521
S'12545426'
p3444
sI3522
S'16479201'
p3445
sI3523
S'14864014'
p3446
sI3524
S'3985673'
p3447
sI3525
S'4710572'
p3448
sI3526
S'13688888'
p3449
sI3527
S'13688739'
p3450
sI3528
S'4240861'
p3451
sI3529
S'15758526'
p3452
sI3530
S'2151558'
p3453
sI3531
S'2244103'
p3454
sI3532
S'2404708'
p3455
sI3533
S'14785624'
p3456
sI3534
S'6869369'
p3457
sI3535
S'4287605'
p3458
sI3536
S'4605071'
p3459
sI3537
S'6778675'
p3460
sI3538
S'45556'
p3461
sI3539
S'57161'
p3462
sI3540
S'7074961'
p3463
sI3541
S'15508035'
p3464
sI3542
S'11796068'
p3465
sI3543
S'16358306'
p3466
sI3544
S'13999118'
p3467
sI3545
S'8761111'
p3468
sI3546
S'12231352'
p3469
sI3547
S'13766593'
p3470
sI3548
S'1221503'
p3471
sI3549
S'808851'
p3472
sI3550
S'5161173'
p3473
sI3551
S'11701006'
p3474
sI3552
S'13657351'
p3475
sI3553
S'5782973'
p3476
sI3554
S'4607923'
p3477
sI3555
S'13982518'
p3478
sI3556
S'9806996'
p3479
sI3557
S'8507219'
p3480
sI3558
S'12807447'
p3481
sI3559
S'17125189'
p3482
sI3560
S'4767139'
p3483
sI3561
S'9874418'
p3484
sI3562
S'8506745'
p3485
sI3563
S'8975190'
p3486
sI3564
S'6364150'
p3487
sI3565
S'1717499'
p3488
sI3566
S'10389715'
p3489
sI3567
S'16082515'
p3490
sI3568
S'16570490'
p3491
sI3569
S'14756913'
p3492
sI3570
S'8104879'
p3493
sI3571
S'5204719'
p3494
sI3572
S'9064688'
p3495
sI3573
S'16276632'
p3496
sI3574
S'826075'
p3497
sI3575
S'1535607'
p3498
sI3576
S'1081932'
p3499
sI3577
S'385824'
p3500
sI3578
S'13669161'
p3501
sI3579
S'1311327'
p3502
sI3580
S'7222833'
p3503
sI3581
S'11209798'
p3504
sI3582
S'11607729'
p3505
sI3583
S'6661923'
p3506
sI3584
S'14125891'
p3507
sI3585
S'1232365'
p3508
sI3586
S'4309079'
p3509
sI3587
S'822172'
p3510
sI3588
S'14535416'
p3511
sI3589
S'4728648'
p3512
sI3590
S'6730582'
p3513
sI3591
S'7127458'
p3514
sI3592
S'15452345'
p3515
sI3593
S'16225616'
p3516
sI3594
S'16132935'
p3517
sI3595
S'5727850'
p3518
sI3596
S'1497024'
p3519
sI3597
S'13100721'
p3520
sI3598
S'16129535'
p3521
sI3599
S'12345615'
p3522
sI3600
S'9833962'
p3523
sI3601
S'1746726'
p3524
sI3602
S'1806637'
p3525
sI3603
S'3052904'
p3526
sI3604
S'6764546'
p3527
sI3605
S'6950132'
p3528
sI3606
S'10960162'
p3529
sI3607
S'2326253'
p3530
sI3608
S'3047757'
p3531
sI3609
S'13987032'
p3532
sI3610
S'15085230'
p3533
sI3611
S'28327'
p3534
sI3612
S'15972656'
p3535
sI3613
S'5183641'
p3536
sI3614
S'2089712'
p3537
sI3615
S'9563873'
p3538
sI3616
S'15659753'
p3539
sI3617
S'14947534'
p3540
sI3618
S'6809332'
p3541
sI3619
S'6181131'
p3542
sI3620
S'16206312'
p3543
sI3621
S'11301136'
p3544
sI3622
S'6845926'
p3545
sI3623
S'1577913'
p3546
sI3624
S'923979'
p3547
sI3625
S'10902006'
p3548
sI3626
S'14352275'
p3549
sI3627
S'15885689'
p3550
sI3628
S'15498773'
p3551
sI3629
S'13040221'
p3552
sI3630
S'7676145'
p3553
sI3631
S'14914048'
p3554
sI3632
S'8889118'
p3555
sI3633
S'15909448'
p3556
sI3634
S'4276618'
p3557
sI3635
S'253475'
p3558
sI3636
S'13532718'
p3559
sI3637
S'1127140'
p3560
sI3638
S'5891777'
p3561
sI3639
S'7970578'
p3562
sI3640
S'11144797'
p3563
sI3641
S'14110407'
p3564
sI3642
S'4332961'
p3565
sI3643
S'3473170'
p3566
sI3644
S'4347881'
p3567
sI3645
S'807882'
p3568
sI3646
S'9755064'
p3569
sI3647
S'15438857'
p3570
sI3648
S'409293'
p3571
sI3649
S'7601870'
p3572
sI3650
S'8150998'
p3573
sI3651
S'1743068'
p3574
sI3652
S'9792836'
p3575
sI3653
S'11602886'
p3576
sI3654
S'5885280'
p3577
sI3655
S'5248336'
p3578
sI3656
S'5637044'
p3579
sI3657
S'697499'
p3580
sI3658
S'4143937'
p3581
sI3659
S'16029272'
p3582
sI3660
S'13901170'
p3583
sI3661
S'9403626'
p3584
sI3662
S'7307941'
p3585
sI3663
S'853142'
p3586
sI3664
S'5287414'
p3587
sI3665
S'146754'
p3588
sI3666
S'11511431'
p3589
sI3667
S'15057011'
p3590
sI3668
S'2635711'
p3591
sI3669
S'4066224'
p3592
sI3670
S'8680648'
p3593
sI3671
S'3729469'
p3594
sI3672
S'15066466'
p3595
sI3673
S'5520968'
p3596
sI3674
S'13911123'
p3597
sI3675
S'9078739'
p3598
sI3676
S'908930'
p3599
sI3677
S'11395511'
p3600
sI3678
S'5261209'
p3601
sI3679
S'3431377'
p3602
sI3680
S'4470054'
p3603
sI3681
S'141154'
p3604
sI3682
S'7678187'
p3605
sI3683
S'16193921'
p3606
sI3684
S'306919'
p3607
sI3685
S'8937816'
p3608
sI3686
S'13788695'
p3609
sI3687
S'3641819'
p3610
sI3688
S'10088612'
p3611
sI3689
S'2057347'
p3612
sI3690
S'5550377'
p3613
sI3691
S'13157343'
p3614
sI3692
S'1534078'
p3615
sI3693
S'645075'
p3616
sI3694
S'13394'
p3617
sI3695
S'4815848'
p3618
sI3696
S'14967839'
p3619
sI3697
S'11784648'
p3620
sI3698
S'265506'
p3621
sI3699
S'321136'
p3622
sI3700
S'9614378'
p3623
sI3701
S'14646562'
p3624
sI3702
S'941165'
p3625
sI3703
S'13356272'
p3626
sI3704
S'3248010'
p3627
sI3705
S'14214604'
p3628
sI3706
S'7441692'
p3629
sI3707
S'9185696'
p3630
sI3708
S'2326069'
p3631
sI3709
S'1741622'
p3632
sI3710
S'11847053'
p3633
sI3711
S'3767156'
p3634
sI3712
S'6598164'
p3635
sI3713
S'6550702'
p3636
sI3714
S'2540281'
p3637
sI3715
S'4548521'
p3638
sI3716
S'12962482'
p3639
sI3717
S'8055721'
p3640
sI3718
S'6300353'
p3641
sI3719
S'11453029'
p3642
sI3720
S'12794245'
p3643
sI3721
S'14406807'
p3644
sI3722
S'6198343'
p3645
sI3723
S'12600583'
p3646
sI3724
S'12600586'
p3647
sI3725
S'17029206'
p3648
sI3726
S'12965215'
p3649
sI3727
S'268392'
p3650
sI3728
S'15446631'
p3651
sI3729
S'13018127'
p3652
sI3730
S'11021160'
p3653
sI3731
S'7804659'
p3654
sI3732
S'15179406'
p3655
sI3733
S'7855021'
p3656
sI3734
S'4473156'
p3657
sI3735
S'27644'
p3658
sI3736
S'12356873'
p3659
sI3737
S'6654202'
p3660
sI3738
S'2050368'
p3661
sI3739
S'5204458'
p3662
sI3740
S'3801665'
p3663
sI3741
S'5895082'
p3664
sI3742
S'10710046'
p3665
sI3743
S'13331735'
p3666
sI3744
S'3263561'
p3667
sI3745
S'12253343'
p3668
sI3746
S'9668485'
p3669
sI3747
S'7174361'
p3670
sI3748
S'6250971'
p3671
sI3749
S'2472461'
p3672
sI3750
S'9775296'
p3673
sI3751
S'737126'
p3674
sI3752
S'859023'
p3675
sI3753
S'1373658'
p3676
sI3754
S'5126657'
p3677
sI3755
S'4616700'
p3678
sI3756
S'9900779'
p3679
sI3757
S'5562420'
p3680
sI3758
S'1583985'
p3681
sI3759
S'35963'
p3682
sI3760
S'4874176'
p3683
sI3761
S'6712530'
p3684
sI3762
S'11693256'
p3685
sI3763
S'12829824'
p3686
sI3764
S'9584126'
p3687
sI3765
S'9574936'
p3688
sI3766
S'15437282'
p3689
sI3767
S'12114810'
p3690
sI3768
S'14760402'
p3691
sI3769
S'13436258'
p3692
sI3770
S'397297'
p3693
sI3771
S'5031178'
p3694
sI3772
S'2665579'
p3695
sI3773
S'15738554'
p3696
sI3774
S'9351679'
p3697
sI3775
S'4297952'
p3698
sI3776
S'4628603'
p3699
sI3777
S'15941474'
p3700
sI3778
S'13599209'
p3701
sI3779
S'15745866'
p3702
sI3780
S'7763869'
p3703
sI3781
S'2445093'
p3704
sI3782
S'8168670'
p3705
sI3783
S'13961073'
p3706
sI3784
S'1896469'
p3707
sI3785
S'2191612'
p3708
sI3786
S'7326082'
p3709
sI3787
S'3224913'
p3710
sI3788
S'12492594'
p3711
sI3789
S'592785'
p3712
sI3790
S'5211902'
p3713
sI3791
S'4936254'
p3714
sI3792
S'17138093'
p3715
sI3793
S'3811639'
p3716
sI3794
S'13999283'
p3717
sI3795
S'6950477'
p3718
sI3796
S'11165126'
p3719
sI3797
S'8210423'
p3720
sI3798
S'13810918'
p3721
sI3799
S'5112097'
p3722
sI3800
S'2969919'
p3723
sI3801
S'3710661'
p3724
sI3802
S'16146708'
p3725
sI3803
S'6965019'
p3726
sI3804
S'7400486'
p3727
sI3805
S'9106907'
p3728
sI3806
S'10148955'
p3729
sI3807
S'4129212'
p3730
sI3808
S'484600'
p3731
sI3809
S'518576'
p3732
sI3810
S'13841711'
p3733
sI3811
S'1778616'
p3734
sI3812
S'7341077'
p3735
sI3813
S'14731596'
p3736
sI3814
S'10703724'
p3737
sI3815
S'5274268'
p3738
sI3816
S'6257586'
p3739
sI3817
S'4115327'
p3740
sI3818
S'10135852'
p3741
sI3819
S'10653956'
p3742
sI3820
S'15131265'
p3743
sI3821
S'2263248'
p3744
sI3822
S'3297016'
p3745
sI3823
S'6416262'
p3746
sI3824
S'6341943'
p3747
sI3825
S'11788559'
p3748
sI3826
S'4536637'
p3749
sI3827
S'915020'
p3750
sI3828
S'11714323'
p3751
sI3829
S'12870891'
p3752
sI3830
S'14564158'
p3753
sI3831
S'12736761'
p3754
sI3832
S'11216918'
p3755
sI3833
S'3654480'
p3756
sI3834
S'3999735'
p3757
sI3835
S'13731577'
p3758
sI3836
S'211974'
p3759
sI3837
S'256369'
p3760
sI3838
S'13028906'
p3761
sI3839
S'4701270'
p3762
sI3840
S'6692786'
p3763
sI3841
S'1925406'
p3764
sI3842
S'10035471'
p3765
sI3843
S'16273818'
p3766
sI3844
S'17000016'
p3767
sI3845
S'17095323'
p3768
sI3846
S'4593316'
p3769
sI3847
S'13183816'
p3770
sI3848
S'9509218'
p3771
sI3849
S'2344112'
p3772
sI3850
S'11737524'
p3773
sI3851
S'1795905'
p3774
sI3852
S'9685865'
p3775
sI3853
S'4845155'
p3776
sI3854
S'7818701'
p3777
sI3855
S'1527901'
p3778
sI3856
S'2976105'
p3779
sI3857
S'8325689'
p3780
sI3858
S'2134047'
p3781
sI3859
S'9561222'
p3782
sI3860
S'15859011'
p3783
sI3861
S'3890018'
p3784
sI3862
S'15287874'
p3785
sI3863
S'14287'
p3786
sI3864
S'285469'
p3787
sI3865
S'1233346'
p3788
sI3866
S'7415905'
p3789
sI3867
S'1947486'
p3790
sI3868
S'8081193'
p3791
sI3869
S'11656709'
p3792
sI3870
S'10380644'
p3793
sI3871
S'16192835'
p3794
sI3872
S'1120700'
p3795
sI3873
S'5590966'
p3796
sI3874
S'3573724'
p3797
sI3875
S'158955'
p3798
sI3876
S'4287221'
p3799
sI3877
S'8194650'
p3800
sI3878
S'596048'
p3801
sI3879
S'8775324'
p3802
sI3880
S'782554'
p3803
sI3881
S'10013750'
p3804
sI3882
S'16627439'
p3805
sI3883
S'753983'
p3806
sI3884
S'12211396'
p3807
sI3885
S'14671527'
p3808
sI3886
S'8807842'
p3809
sI3887
S'4285571'
p3810
sI3888
S'1352657'
p3811
sI3889
S'16071883'
p3812
sI3890
S'15927523'
p3813
sI3891
S'15454628'
p3814
sI3892
S'15634386'
p3815
sI3893
S'2464673'
p3816
sI3894
S'6361102'
p3817
sI3895
S'6594861'
p3818
sI3896
S'1218003'
p3819
sI3897
S'341982'
p3820
sI3898
S'15002717'
p3821
sI3899
S'14723366'
p3822
sI3900
S'16001745'
p3823
sI3901
S'9107772'
p3824
sI3902
S'573478'
p3825
sI3903
S'3644032'
p3826
sI3904
S'2392296'
p3827
sI3905
S'6716020'
p3828
sI3906
S'3633634'
p3829
sI3907
S'747419'
p3830
sI3908
S'4343510'
p3831
sI3909
S'15857038'
p3832
sI3910
S'15616747'
p3833
sI3911
S'15436836'
p3834
sI3912
S'6610511'
p3835
sI3913
S'11532531'
p3836
sI3914
S'16631970'
p3837
sI3915
S'9413794'
p3838
sI3916
S'3958032'
p3839
sI3917
S'1811446'
p3840
sI3918
S'787593'
p3841
sI3919
S'8132701'
p3842
sI3920
S'16037576'
p3843
sI3921
S'13084019'
p3844
sI3922
S'8863216'
p3845
sI3923
S'61167'
p3846
sI3924
S'13409293'
p3847
sI3925
S'8537628'
p3848
sI3926
S'11046443'
p3849
sI3927
S'6238314'
p3850
sI3928
S'6284471'
p3851
sI3929
S'4975302'
p3852
sI3930
S'13433684'
p3853
sI3931
S'1820038'
p3854
sI3932
S'1106033'
p3855
sI3933
S'7613146'
p3856
sI3934
S'10112451'
p3857
sI3935
S'6388721'
p3858
sI3936
S'8053022'
p3859
sI3937
S'3283409'
p3860
sI3938
S'308241'
p3861
sI3939
S'10246013'
p3862
sI3940
S'7051619'
p3863
sI3941
S'1815211'
p3864
sI3942
S'9824547'
p3865
sI3943
S'12262453'
p3866
sI3944
S'64627'
p3867
sI3945
S'11850782'
p3868
sI3946
S'32023'
p3869
sI3947
S'9147431'
p3870
sI3948
S'14180414'
p3871
sI3949
S'797972'
p3872
sI3950
S'4438459'
p3873
sI3951
S'13478138'
p3874
sI3952
S'2081394'
p3875
sI3953
S'13213590'
p3876
sI3954
S'6452137'
p3877
sI3955
S'3041785'
p3878
sI3956
S'4901617'
p3879
sI3957
S'6428854'
p3880
sI3958
S'14452731'
p3881
sI3959
S'4615713'
p3882
sI3960
S'7916103'
p3883
sI3961
S'3544533'
p3884
sI3962
S'3544530'
p3885
sI3963
S'13124099'
p3886
sI3964
S'10938850'
p3887
sI3965
S'11584490'
p3888
sI3966
S'610621'
p3889
sI3967
S'12495592'
p3890
sI3968
S'6464254'
p3891
sI3969
S'1497459'
p3892
sI3970
S'6105581'
p3893
sI3971
S'15989677'
p3894
sI3972
S'13113202'
p3895
sI3973
S'15270476'
p3896
sI3974
S'4694480'
p3897
sI3975
S'1750527'
p3898
sI3976
S'7729018'
p3899
sI3977
S'14058375'
p3900
sI3978
S'12411380'
p3901
sI3979
S'2804065'
p3902
sI3980
S'4164076'
p3903
sI3981
S'3358937'
p3904
sI3982
S'9683429'
p3905
sI3983
S'1326514'
p3906
sI3984
S'17358323'
p3907
sI3985
S'11122042'
p3908
sI3986
S'9683421'
p3909
sI3987
S'8916387'
p3910
sI3988
S'6107389'
p3911
sI3989
S'202716'
p3912
sI3990
S'10985169'
p3913
sI3991
S'2164135'
p3914
sI3992
S'12124356'
p3915
sI3993
S'18590'
p3916
sI3994
S'4549930'
p3917
sI3995
S'1512006'
p3918
sI3996
S'919491'
p3919
sI3997
S'15754561'
p3920
sI3998
S'6750178'
p3921
sI3999
S'5041718'
p3922
sI4000
S'10337920'
p3923
sI4001
S'13962781'
p3924
sI4002
S'8846233'
p3925
sI4003
S'6780509'
p3926
sI4004
S'9183061'
p3927
sI4005
S'13825295'
p3928
sI4006
S'14200678'
p3929
sI4007
S'2836845'
p3930
sI4008
S'1631845'
p3931
sI4009
S'12781809'
p3932
sI4010
S'15281457'
p3933
sI4011
S'2001022'
p3934
sI4012
S'15037701'
p3935
sI4013
S'9184945'
p3936
sI4014
S'252607'
p3937
sI4015
S'9542254'
p3938
sI4016
S'16064150'
p3939
sI4017
S'11118641'
p3940
sI4018
S'4471513'
p3941
sI4019
S'9542259'
p3942
sI4020
S'16679159'
p3943
sI4021
S'15207317'
p3944
sI4022
S'700916'
p3945
sI4023
S'9277608'
p3946
sI4024
S'2651125'
p3947
sI4025
S'15802528'
p3948
sI4026
S'656913'
p3949
sI4027
S'5806817'
p3950
sI4028
S'9769817'
p3951
sI4029
S'6729778'
p3952
sI4030
S'10516044'
p3953
sI4031
S'8712309'
p3954
sI4032
S'2710417'
p3955
sI4033
S'14352688'
p3956
sI4034
S'47199'
p3957
sI4035
S'449764'
p3958
sI4036
S'12654810'
p3959
sI4037
S'144087'
p3960
sI4038
S'855206'
p3961
sI4039
S'7561314'
p3962
sI4040
S'14748016'
p3963
sI4041
S'7900957'
p3964
sI4042
S'13716058'
p3965
sI4043
S'7809328'
p3966
sI4044
S'6163297'
p3967
sI4045
S'6341337'
p3968
sI4046
S'15359306'
p3969
sI4047
S'4031463'
p3970
sI4048
S'12761910'
p3971
sI4049
S'6234329'
p3972
sI4050
S'576426'
p3973
sI4051
S'13105965'
p3974
sI4052
S'16159463'
p3975
sI4053
S'9684998'
p3976
sI4054
S'4280118'
p3977
sI4055
S'9061331'
p3978
sI4056
S'10812027'
p3979
sI4057
S'1055029'
p3980
sI4058
S'11769558'
p3981
sI4059
S'8324985'
p3982
sI4060
S'15034937'
p3983
sI4061
S'5250051'
p3984
sI4062
S'7178827'
p3985
sI4063
S'8993422'
p3986
sI4064
S'17107329'
p3987
sI4065
S'11627443'
p3988
sI4066
S'13960277'
p3989
sI4067
S'3550298'
p3990
sI4068
S'12448198'
p3991
sI4069
S'5406041'
p3992
sI4070
S'4287589'
p3993
sI4071
S'92894'
p3994
sI4072
S'7808182'
p3995
sI4073
S'9907934'
p3996
sI4074
S'1655027'
p3997
sI4075
S'8553287'
p3998
sI4076
S'12871708'
p3999
sI4077
S'5373310'
p4000
sI4078
S'5373645'
p4001
sI4079
S'9222165'
p4002
sI4080
S'8579865'
p4003
sI4081
S'1706103'
p4004
sI4082
S'14628409'
p4005
sI4083
S'553872'
p4006
sI4084
S'13064913'
p4007
sI4085
S'12376888'
p4008
sI4086
S'13603582'
p4009
sI4087
S'7698521'
p4010
sI4088
S'11321187'
p4011
sI4089
S'310152'
p4012
sI4090
S'2771126'
p4013
sI4091
S'1164101'
p4014
sI4092
S'16216610'
p4015
sI4093
S'13275792'
p4016
sI4094
S'1820931'
p4017
sI4095
S'16363175'
p4018
sI4096
S'1392330'
p4019
sI4097
S'1422815'
p4020
sI4098
S'3874086'
p4021
sI4099
S'672724'
p4022
sI4100
S'6656880'
p4023
sI4101
S'833927'
p4024
sI4102
S'521522'
p4025
sI4103
S'16175456'
p4026
sI4104
S'12422277'
p4027
sI4105
S'6292866'
p4028
sI4106
S'3554598'
p4029
sI4107
S'12732671'
p4030
sI4108
S'12494870'
p4031
sI4109
S'14991333'
p4032
sI4110
S'5232599'
p4033
sI4111
S'767562'
p4034
sI4112
S'166983'
p4035
sI4113
S'6156319'
p4036
sI4114
S'41348'
p4037
sI4115
S'16639826'
p4038
sI4116
S'823880'
p4039
sI4117
S'6560165'
p4040
sI4118
S'4242976'
p4041
sI4119
S'7286324'
p4042
sI4120
S'1092760'
p4043
sI4121
S'5159990'
p4044
sI4122
S'409734'
p4045
sI4123
S'12377755'
p4046
sI4124
S'3675568'
p4047
sI4125
S'15009466'
p4048
sI4126
S'6657134'
p4049
sI4127
S'15074006'
p4050
sI4128
S'7221712'
p4051
sI4129
S'13941210'
p4052
sI4130
S'7191494'
p4053
sI4131
S'1386742'
p4054
sI4132
S'57874'
p4055
sI4133
S'4728812'
p4056
sI4134
S'9217460'
p4057
sI4135
S'5791540'
p4058
sI4136
S'3105197'
p4059
sI4137
S'5410897'
p4060
sI4138
S'11602574'
p4061
sI4139
S'11724255'
p4062
sI4140
S'16015053'
p4063
sI4141
S'6446115'
p4064
sI4142
S'2127713'
p4065
sI4143
S'2302803'
p4066
sI4144
S'7087633'
p4067
sI4145
S'7258306'
p4068
sI4146
S'10724373'
p4069
sI4147
S'8815447'
p4070
sI4148
S'16136211'
p4071
sI4149
S'8381754'
p4072
sI4150
S'13506956'
p4073
sI4151
S'1260031'
p4074
sI4152
S'412180'
p4075
sI4153
S'14577930'
p4076
sI4154
S'4456312'
p4077
sI4155
S'15641528'
p4078
sI4156
S'1115349'
p4079
sI4157
S'16976026'
p4080
sI4158
S'15282640'
p4081
sI4159
S'14241605'
p4082
sI4160
S'979851'
p4083
sI4161
S'9773252'
p4084
sI4162
S'10832401'
p4085
sI4163
S'607735'
p4086
sI4164
S'11477187'
p4087
sI4165
S'3352472'
p4088
sI4166
S'13303560'
p4089
sI4167
S'14416791'
p4090
sI4168
S'15942688'
p4091
sI4169
S'7226840'
p4092
sI4170
S'3042547'
p4093
sI4171
S'1354415'
p4094
sI4172
S'14409723'
p4095
sI4173
S'10148303'
p4096
sI4174
S'815465'
p4097
sI4175
S'522081'
p4098
sI4176
S'5068303'
p4099
sI4177
S'9837193'
p4100
sI4178
S'2115611'
p4101
sI4179
S'9532435'
p4102
sI4180
S'6305027'
p4103
sI4181
S'4331691'
p4104
sI4182
S'4444372'
p4105
sI4183
S'7257303'
p4106
sI4184
S'317938'
p4107
sI4185
S'825486'
p4108
sI4186
S'14043464'
p4109
sI4187
S'11084143'
p4110
sI4188
S'14749558'
p4111
sI4189
S'299521'
p4112
sI4190
S'9199020'
p4113
sI4191
S'5883069'
p4114
sI4192
S'339456'
p4115
sI4193
S'8490'
p4116
sI4194
S'5957914'
p4117
sI4195
S'225306'
p4118
sI4196
S'3258183'
p4119
sI4197
S'9350060'
p4120
sI4198
S'1029118'
p4121
sI4199
S'6836410'
p4122
sI4200
S'2188204'
p4123
sI4201
S'2065473'
p4124
sI4202
S'957002'
p4125
sI4203
S'4119763'
p4126
sI4204
S'11911486'
p4127
sI4205
S'11816864'
p4128
sI4206
S'13264012'
p4129
sI4207
S'15222861'
p4130
sI4208
S'190968'
p4131
sI4209
S'16040291'
p4132
sI4210
S'4970846'
p4133
sI4211
S'4946624'
p4134
sI4212
S'6338068'
p4135
sI4213
S'14818234'
p4136
sI4214
S'13128747'
p4137
sI4215
S'3003349'
p4138
sI4216
S'494937'
p4139
sI4217
S'4833414'
p4140
sI4218
S'7725825'
p4141
sI4219
S'2242614'
p4142
sI4220
S'14357461'
p4143
sI4221
S'10125955'
p4144
sI4222
S'8388864'
p4145
sI4223
S'11553765'
p4146
sI4224
S'14682981'
p4147
sI4225
S'14870796'
p4148
sI4226
S'15165678'
p4149
sI4227
S'1339829'
p4150
sI4228
S'3884893'
p4151
sI4229
S'7652500'
p4152
sI4230
S'9033081'
p4153
sI4231
S'9611586'
p4154
sI4232
S'7403320'
p4155
sI4233
S'7134343'
p4156
sI4234
S'15818196'
p4157
sI4235
S'12971623'
p4158
sI4236
S'100002'
p4159
sI4237
S'9705176'
p4160
sI4238
S'3601324'
p4161
sI4239
S'9634880'
p4162
sI4240
S'1421933'
p4163
sI4241
S'14430474'
p4164
sI4242
S'16041981'
p4165
sI4243
S'14500735'
p4166
sI4244
S'3969366'
p4167
sI4245
S'15715599'
p4168
sI4246
S'2453739'
p4169
sI4247
S'690516'
p4170
sI4248
S'208095'
p4171
sI4249
S'11736796'
p4172
sI4250
S'12027963'
p4173
sI4251
S'14800945'
p4174
sI4252
S'12015378'
p4175
sI4253
S'11990189'
p4176
sI4254
S'12645495'
p4177
sI4255
S'5557381'
p4178
sI4256
S'9610982'
p4179
sI4257
S'14280899'
p4180
sI4258
S'6389473'
p4181
sI4259
S'1866128'
p4182
sI4260
S'820218'
p4183
sI4261
S'1379616'
p4184
sI4262
S'7095783'
p4185
sI4263
S'7696843'
p4186
sI4264
S'70128'
p4187
sI4265
S'3603426'
p4188
sI4266
S'1959024'
p4189
sI4267
S'14014629'
p4190
sI4268
S'12304210'
p4191
sI4269
S'5020842'
p4192
sI4270
S'10877191'
p4193
sI4271
S'12049184'
p4194
sI4272
S'38638'
p4195
sI4273
S'16404762'
p4196
sI4274
S'10154762'
p4197
sI4275
S'1534782'
p4198
sI4276
S'1887003'
p4199
sI4277
S'8864313'
p4200
sI4278
S'3924092'
p4201
sI4279
S'13847526'
p4202
sI4280
S'13623187'
p4203
sI4281
S'14706784'
p4204
sI4282
S'2391204'
p4205
sI4283
S'12554945'
p4206
sI4284
S'8920816'
p4207
sI4285
S'4615991'
p4208
sI4286
S'6493409'
p4209
sI4287
S'858223'
p4210
sI4288
S'62095'
p4211
sI4289
S'5193916'
p4212
sI4290
S'6359942'
p4213
sI4291
S'5932046'
p4214
sI4292
S'9405334'
p4215
sI4293
S'7310948'
p4216
sI4294
S'2303436'
p4217
sI4295
S'12819224'
p4218
sI4296
S'5288376'
p4219
sI4297
S'883423'
p4220
sI4298
S'11583591'
p4221
sI4299
S'15266140'
p4222
sI4300
S'13862929'
p4223
sI4301
S'11786053'
p4224
sI4302
S'3122731'
p4225
sI4303
S'8868258'
p4226
sI4304
S'9925507'
p4227
sI4305
S'16145871'
p4228
sI4306
S'14732979'
p4229
sI4307
S'15716242'
p4230
sI4308
S'3104652'
p4231
sI4309
S'15071881'
p4232
sI4310
S'10612564'
p4233
sI4311
S'6601284'
p4234
sI4312
S'7222354'
p4235
sI4313
S'3379914'
p4236
sI4314
S'13174433'
p4237
sI4315
S'7632182'
p4238
sI4316
S'1060019'
p4239
sI4317
S'12187394'
p4240
sI4318
S'1284659'
p4241
sI4319
S'14246246'
p4242
sI4320
S'268868'
p4243
sI4321
S'6410759'
p4244
sI4322
S'12287479'
p4245
sI4323
S'6866419'
p4246
sI4324
S'4621713'
p4247
sI4325
S'8085549'
p4248
sI4326
S'6274418'
p4249
sI4327
S'2657791'
p4250
sI4328
S'16720662'
p4251
sI4329
S'12856992'
p4252
sI4330
S'2968070'
p4253
sI4331
S'14489610'
p4254
sI4332
S'14489615'
p4255
sI4333
S'15722030'
p4256
sI4334
S'6974801'
p4257
sI4335
S'1026592'
p4258
sI4336
S'945820'
p4259
sI4337
S'310524'
p4260
sI4338
S'6923485'
p4261
sI4339
S'12252035'
p4262
sI4340
S'4386200'
p4263
sI4341
S'8210379'
p4264
sI4342
S'1728703'
p4265
sI4343
S'11257497'
p4266
sI4344
S'12287938'
p4267
sI4345
S'61224'
p4268
sI4346
S'2883054'
p4269
sI4347
S'14742961'
p4270
sI4348
S'11685868'
p4271
sI4349
S'16302192'
p4272
sI4350
S'15482102'
p4273
sI4351
S'9348111'
p4274
sI4352
S'4642539'
p4275
sI4353
S'9237147'
p4276
sI4354
S'13694129'
p4277
sI4355
S'1348118'
p4278
sI4356
S'13013734'
p4279
sI4357
S'2098030'
p4280
sI4358
S'6346662'
p4281
sI4359
S'9713045'
p4282
sI4360
S'16229770'
p4283
sI4361
S'9219588'
p4284
sI4362
S'16148907'
p4285
sI4363
S'4339188'
p4286
sI4364
S'2310791'
p4287
sI4365
S'16163874'
p4288
sI4366
S'13031287'
p4289
sI4367
S'7826478'
p4290
sI4368
S'4392369'
p4291
sI4369
S'348753'
p4292
sI4370
S'15745537'
p4293
sI4371
S'9479616'
p4294
sI4372
S'10853162'
p4295
sI4373
S'1971239'
p4296
sI4374
S'1368674'
p4297
sI4375
S'10132633'
p4298
sI4376
S'12093078'
p4299
sI4377
S'6792415'
p4300
sI4378
S'13715386'
p4301
sI4379
S'3970183'
p4302
sI4380
S'4849994'
p4303
sI4381
S'7819539'
p4304
sI4382
S'607781'
p4305
sI4383
S'4841431'
p4306
sI4384
S'13591923'
p4307
sI4385
S'13126032'
p4308
sI4386
S'3924397'
p4309
sI4387
S'162565'
p4310
sI4388
S'558331'
p4311
sI4389
S'14651790'
p4312
sI4390
S'5702463'
p4313
sI4391
S'7025026'
p4314
sI4392
S'179925'
p4315
sI4393
S'16133782'
p4316
sI4394
S'8589668'
p4317
sI4395
S'3678829'
p4318
sI4396
S'4038991'
p4319
sI4397
S'1948494'
p4320
sI4398
S'8320702'
p4321
sI4399
S'7253330'
p4322
sI4400
S'10310874'
p4323
sI4401
S'16159247'
p4324
sI4402
S'12774249'
p4325
sI4403
S'8422085'
p4326
sI4404
S'2137796'
p4327
sI4405
S'17176910'
p4328
sI4406
S'8055582'
p4329
sI4407
S'5578843'
p4330
sI4408
S'2454281'
p4331
sI4409
S'2287888'
p4332
sI4410
S'928004'
p4333
sI4411
S'7664863'
p4334
sI4412
S'9352565'
p4335
sI4413
S'7865678'
p4336
sI4414
S'8286139'
p4337
sI4415
S'9475866'
p4338
sI4416
S'13995350'
p4339
sI4417
S'4917519'
p4340
sI4418
S'11868495'
p4341
sI4419
S'11562327'
p4342
sI4420
S'14121388'
p4343
sI4421
S'8241975'
p4344
sI4422
S'12681868'
p4345
sI4423
S'8569922'
p4346
sI4424
S'2640764'
p4347
sI4425
S'9842492'
p4348
sI4426
S'16084355'
p4349
sI4427
S'3111195'
p4350
sI4428
S'13372847'
p4351
sI4429
S'2757138'
p4352
sI4430
S'13251561'
p4353
sI4431
S'3652288'
p4354
sI4432
S'14148897'
p4355
sI4433
S'1336390'
p4356
sI4434
S'14628165'
p4357
sI4435
S'15720448'
p4358
sI4436
S'566943'
p4359
sI4437
S'12131147'
p4360
sI4438
S'4163781'
p4361
sI4439
S'5346743'
p4362
sI4440
S'6766169'
p4363
sI4441
S'14064701'
p4364
sI4442
S'14113893'
p4365
sI4443
S'5846050'
p4366
sI4444
S'1673338'
p4367
sI4445
S'6019386'
p4368
sI4446
S'3521318'
p4369
sI4447
S'8253057'
p4370
sI4448
S'14805001'
p4371
sI4449
S'16614328'
p4372
sI4450
S'9423209'
p4373
sI4451
S'1478315'
p4374
sI4452
S'607316'
p4375
sI4453
S'3375998'
p4376
sI4454
S'4695408'
p4377
sI4455
S'6082939'
p4378
sI4456
S'2116940'
p4379
sI4457
S'8630662'
p4380
sI4458
S'16534337'
p4381
sI4459
S'15126147'
p4382
sI4460
S'776500'
p4383
sI4461
S'3171880'
p4384
sI4462
S'10968498'
p4385
sI4463
S'5477378'
p4386
sI4464
S'1134635'
p4387
sI4465
S'8888595'
p4388
sI4466
S'13375936'
p4389
sI4467
S'17386608'
p4390
sI4468
S'13298179'
p4391
sI4469
S'6939638'
p4392
sI4470
S'5268818'
p4393
sI4471
S'9461085'
p4394
sI4472
S'11760308'
p4395
sI4473
S'5200433'
p4396
sI4474
S'10377405'
p4397
sI4475
S'2543343'
p4398
sI4476
S'2837705'
p4399
sI4477
S'16290362'
p4400
sI4478
S'5326835'
p4401
sI4479
S'14826263'
p4402
sI4480
S'6224336'
p4403
sI4481
S'13020422'
p4404
sI4482
S'11224100'
p4405
sI4483
S'333175'
p4406
sI4484
S'4295108'
p4407
sI4485
S'16242309'
p4408
sI4486
S'2523629'
p4409
sI4487
S'4137414'
p4410
sI4488
S'100023'
p4411
sI4489
S'13545656'
p4412
sI4490
S'11695822'
p4413
sI4491
S'13656107'
p4414
sI4492
S'8016946'
p4415
sI4493
S'15223519'
p4416
sI4494
S'11411760'
p4417
sI4495
S'15234773'
p4418
sI4496
S'14661771'
p4419
sI4497
S'13915699'
p4420
sI4498
S'2950760'
p4421
sI4499
S'6262821'
p4422
sI4500
S'10768031'
p4423
sI4501
S'10088849'
p4424
sI4502
S'818518'
p4425
sI4503
S'15443881'
p4426
sI4504
S'13155240'
p4427
sI4505
S'13576340'
p4428
sI4506
S'8190190'
p4429
sI4507
S'6500246'
p4430
sI4508
S'13623747'
p4431
sI4509
S'15578917'
p4432
sI4510
S'4582781'
p4433
sI4511
S'46859'
p4434
sI4512
S'12618357'
p4435
sI4513
S'294227'
p4436
sI4514
S'14092236'
p4437
sI4515
S'16172195'
p4438
sI4516
S'2977482'
p4439
sI4517
S'6924793'
p4440
sI4518
S'387735'
p4441
sI4519
S'5363669'
p4442
sI4520
S'5386245'
p4443
sI4521
S'12836344'
p4444
sI4522
S'4439708'
p4445
sI4523
S'9129371'
p4446
sI4524
S'837503'
p4447
sI4525
S'1467474'
p4448
sI4526
S'7123455'
p4449
sI4527
S'15158791'
p4450
sI4528
S'875036'
p4451
sI4529
S'3302333'
p4452
sI4530
S'12423485'
p4453
sI4531
S'3013158'
p4454
sI4532
S'4244242'
p4455
sI4533
S'272706'
p4456
sI4534
S'8409246'
p4457
sI4535
S'599847'
p4458
sI4536
S'4660022'
p4459
sI4537
S'16725924'
p4460
sI4538
S'16135973'
p4461
sI4539
S'13309409'
p4462
sI4540
S'12650794'
p4463
sI4541
S'9444059'
p4464
sI4542
S'3543227'
p4465
sI4543
S'1195260'
p4466
sI4544
S'14106099'
p4467
sI4545
S'13434377'
p4468
sI4546
S'13378919'
p4469
sI4547
S'11322391'
p4470
sI4548
S'16675195'
p4471
sI4549
S'9381315'
p4472
sI4550
S'13309763'
p4473
sI4551
S'1621986'
p4474
sI4552
S'13768789'
p4475
sI4553
S'15297194'
p4476
sI4554
S'2773698'
p4477
sI4555
S'433611'
p4478
sI4556
S'8840625'
p4479
sI4557
S'10229075'
p4480
sI4558
S'15213896'
p4481
sI4559
S'1095106'
p4482
sI4560
S'7899965'
p4483
sI4561
S'3362455'
p4484
sI4562
S'9378184'
p4485
sI4563
S'9976908'
p4486
sI4564
S'6559453'
p4487
sI4565
S'9280474'
p4488
sI4566
S'2082223'
p4489
sI4567
S'286641'
p4490
sI4568
S'6911965'
p4491
sI4569
S'16324854'
p4492
sI4570
S'1709089'
p4493
sI4571
S'4933727'
p4494
sI4572
S'11693764'
p4495
sI4573
S'16620607'
p4496
sI4574
S'711635'
p4497
sI4575
S'1080543'
p4498
sI4576
S'8347980'
p4499
sI4577
S'16478940'
p4500
sI4578
S'24285'
p4501
sI4579
S'12220661'
p4502
sI4580
S'435049'
p4503
sI4581
S'241140'
p4504
sI4582
S'1284189'
p4505
sI4583
S'9823143'
p4506
sI4584
S'8340668'
p4507
sI4585
S'5051551'
p4508
sI4586
S'1964293'
p4509
sI4587
S'15984376'
p4510
sI4588
S'8100914'
p4511
sI4589
S'6837402'
p4512
sI4590
S'12847188'
p4513
sI4591
S'7936100'
p4514
sI4592
S'16943845'
p4515
sI4593
S'13997894'
p4516
sI4594
S'15759302'
p4517
sI4595
S'6576327'
p4518
sI4596
S'228496'
p4519
sI4597
S'8841646'
p4520
sI4598
S'15863434'
p4521
sI4599
S'14577455'
p4522
sI4600
S'10454844'
p4523
sI4601
S'13894339'
p4524
sI4602
S'1251889'
p4525
sI4603
S'14769619'
p4526
sI4604
S'51485'
p4527
sI4605
S'5458253'
p4528
sI4606
S'11553357'
p4529
sI4607
S'3241287'
p4530
sI4608
S'14321059'
p4531
sI4609
S'6783841'
p4532
sI4610
S'1589660'
p4533
sI4611
S'15067943'
p4534
sI4612
S'9696936'
p4535
sI4613
S'16368376'
p4536
sI4614
S'796490'
p4537
sI4615
S'8164877'
p4538
sI4616
S'16454703'
p4539
sI4617
S'9218263'
p4540
sI4618
S'533444'
p4541
sI4619
S'16633571'
p4542
sI4620
S'1759154'
p4543
sI4621
S'1839818'
p4544
sI4622
S'15951388'
p4545
sI4623
S'16202083'
p4546
sI4624
S'15396351'
p4547
sI4625
S'3531018'
p4548
sI4626
S'7618790'
p4549
sI4627
S'16135198'
p4550
sI4628
S'6553661'
p4551
sI4629
S'4315002'
p4552
sI4630
S'4211276'
p4553
sI4631
S'15319835'
p4554
sI4632
S'15700779'
p4555
sI4633
S'933103'
p4556
sI4634
S'233963'
p4557
sI4635
S'8339140'
p4558
sI4636
S'859045'
p4559
sI4637
S'14408309'
p4560
sI4638
S'13066886'
p4561
sI4639
S'12129496'
p4562
sI4640
S'15301319'
p4563
sI4641
S'13001082'
p4564
sI4642
S'15830920'
p4565
sI4643
S'4987197'
p4566
sI4644
S'9411467'
p4567
sI4645
S'3095074'
p4568
sI4646
S'8942467'
p4569
sI4647
S'3623201'
p4570
sI4648
S'13514745'
p4571
sI4649
S'1515659'
p4572
sI4650
S'2273072'
p4573
sI4651
S'14122281'
p4574
sI4652
S'2189742'
p4575
sI4653
S'10135523'
p4576
sI4654
S'13957499'
p4577
sI4655
S'16157387'
p4578
sI4656
S'2838328'
p4579
sI4657
S'13457198'
p4580
sI4658
S'11086888'
p4581
sI4659
S'6245521'
p4582
sI4660
S'14724181'
p4583
sI4661
S'7999290'
p4584
sI4662
S'5442977'
p4585
sI4663
S'14320099'
p4586
sI4664
S'9704'
p4587
sI4665
S'15423002'
p4588
sI4666
S'9644444'
p4589
sI4667
S'4157451'
p4590
sI4668
S'5691265'
p4591
sI4669
S'8014811'
p4592
sI4670
S'3312417'
p4593
sI4671
S'4244528'
p4594
sI4672
S'5681811'
p4595
sI4673
S'1112407'
p4596
sI4674
S'13547722'
p4597
sI4675
S'9352095'
p4598
sI4676
S'4865641'
p4599
sI4677
S'6155626'
p4600
sI4678
S'6913421'
p4601
sI4679
S'16312966'
p4602
sI4680
S'16162621'
p4603
sI4681
S'14281481'
p4604
sI4682
S'14855614'
p4605
sI4683
S'16735857'
p4606
sI4684
S'1531211'
p4607
sI4685
S'3825743'
p4608
sI4686
S'2838331'
p4609
sI4687
S'1101035'
p4610
sI4688
S'16982938'
p4611
sI4689
S'219066'
p4612
sI4690
S'2825322'
p4613
sI4691
S'179670'
p4614
sI4692
S'9822738'
p4615
sI4693
S'5079124'
p4616
sI4694
S'13974717'
p4617
sI4695
S'793951'
p4618
sI4696
S'2683758'
p4619
sI4697
S'5815618'
p4620
sI4698
S'3376567'
p4621
sI4699
S'7257163'
p4622
sI4700
S'12973927'
p4623
sI4701
S'6215083'
p4624
sI4702
S'16055176'
p4625
sI4703
S'16752643'
p4626
sI4704
S'10130925'
p4627
sI4705
S'14352018'
p4628
sI4706
S'12300734'
p4629
sI4707
S'1186746'
p4630
sI4708
S'6774866'
p4631
sI4709
S'13023771'
p4632
sI4710
S'16054883'
p4633
sI4711
S'9715956'
p4634
sI4712
S'1880345'
p4635
sI4713
S'114229'
p4636
sI4714
S'1700471'
p4637
sI4715
S'16629543'
p4638
sI4716
S'866890'
p4639
sI4717
S'14268259'
p4640
sI4718
S'7734176'
p4641
sI4719
S'13169085'
p4642
sI4720
S'573414'
p4643
sI4721
S'13531852'
p4644
sI4722
S'14523413'
p4645
sI4723
S'13659914'
p4646
sI4724
S'7951281'
p4647
sI4725
S'7620785'
p4648
sI4726
S'67890'
p4649
sI4727
S'14502911'
p4650
sI4728
S'631394'
p4651
sI4729
S'13444042'
p4652
sI4730
S'6611380'
p4653
sI4731
S'8285367'
p4654
sI4732
S'13586614'
p4655
sI4733
S'4695428'
p4656
sI4734
S'6327601'
p4657
sI4735
S'11653081'
p4658
sI4736
S'4584944'
p4659
sI4737
S'8848294'
p4660
sI4738
S'61492'
p4661
sI4739
S'15468790'
p4662
sI4740
S'691049'
p4663
sI4741
S'298782'
p4664
sI4742
S'953275'
p4665
sI4743
S'763962'
p4666
sI4744
S'7471933'
p4667
sI4745
S'7319856'
p4668
sI4746
S'13578156'
p4669
sI4747
S'1377478'
p4670
sI4748
S'10978135'
p4671
sI4749
S'5605822'
p4672
sI4750
S'12772993'
p4673
sI4751
S'2217342'
p4674
sI4752
S'456451'
p4675
sI4753
S'456457'
p4676
sI4754
S'4460160'
p4677
sI4755
S'9531565'
p4678
sI4756
S'3912794'
p4679
sI4757
S'6201900'
p4680
sI4758
S'13559208'
p4681
sI4759
S'15579513'
p4682
sI4760
S'16130471'
p4683
sI4761
S'6741023'
p4684
sI4762
S'14690075'
p4685
sI4763
S'7663744'
p4686
sI4764
S'13952443'
p4687
sI4765
S'4918117'
p4688
sI4766
S'9970995'
p4689
sI4767
S'9079335'
p4690
sI4768
S'1586304'
p4691
sI4769
S'6962981'
p4692
sI4770
S'5004099'
p4693
sI4771
S'1329559'
p4694
sI4772
S'10227474'
p4695
sI4773
S'799829'
p4696
sI4774
S'8621133'
p4697
sI4775
S'8761854'
p4698
sI4776
S'13752982'
p4699
sI4777
S'1950311'
p4700
sI4778
S'11921509'
p4701
sI4779
S'9014320'
p4702
sI4780
S'754343'
p4703
sI4781
S'14781495'
p4704
sI4782
S'2830518'
p4705
sI4783
S'14867169'
p4706
sI4784
S'14608287'
p4707
sI4785
S'6114353'
p4708
sI4786
S'13656123'
p4709
sI4787
S'305245'
p4710
sI4788
S'15982605'
p4711
sI4789
S'378852'
p4712
sI4790
S'690553'
p4713
sI4791
S'15083737'
p4714
sI4792
S'14117696'
p4715
sI4793
S'3818322'
p4716
sI4794
S'13265829'
p4717
sI4795
S'7782176'
p4718
sI4796
S'8440163'
p4719
sI4797
S'14610148'
p4720
sI4798
S'9576478'
p4721
sI4799
S'5543210'
p4722
sI4800
S'2636534'
p4723
sI4801
S'322604'
p4724
sI4802
S'4140776'
p4725
sI4803
S'4460838'
p4726
sI4804
S'1325911'
p4727
sI4805
S'3936970'
p4728
sI4806
S'14092217'
p4729
sI4807
S'14195878'
p4730
sI4808
S'8172915'
p4731
sI4809
S'3192969'
p4732
sI4810
S'2933772'
p4733
sI4811
S'6356366'
p4734
sI4812
S'11546119'
p4735
sI4813
S'10723037'
p4736
sI4814
S'15288813'
p4737
sI4815
S'1933687'
p4738
sI4816
S'7350615'
p4739
sI4817
S'9644386'
p4740
sI4818
S'16174601'
p4741
sI4819
S'3692566'
p4742
sI4820
S'8988451'
p4743
sI4821
S'9935509'
p4744
sI4822
S'10041002'
p4745
sI4823
S'6731170'
p4746
sI4824
S'16019956'
p4747
sI4825
S'12233692'
p4748
sI4826
S'3383516'
p4749
sI4827
S'4482049'
p4750
sI4828
S'1873333'
p4751
sI4829
S'4362474'
p4752
sI4830
S'9495238'
p4753
sI4831
S'9369514'
p4754
sI4832
S'4937135'
p4755
sI4833
S'7809727'
p4756
sI4834
S'1110484'
p4757
sI4835
S'11750272'
p4758
sI4836
S'4069341'
p4759
sI4837
S'4422457'
p4760
sI4838
S'8845289'
p4761
sI4839
S'6698367'
p4762
sI4840
S'14275602'
p4763
sI4841
S'9300634'
p4764
sI4842
S'4644632'
p4765
sI4843
S'4324399'
p4766
sI4844
S'14695001'
p4767
sI4845
S'9463253'
p4768
sI4846
S'16151037'
p4769
sI4847
S'15547397'
p4770
sI4848
S'10069185'
p4771
sI4849
S'16333075'
p4772
sI4850
S'9095319'
p4773
sI4851
S'8286580'
p4774
sI4852
S'10677990'
p4775
sI4853
S'9476449'
p4776
sI4854
S'367810'
p4777
sI4855
S'583352'
p4778
sI4856
S'6037761'
p4779
sI4857
S'12782370'
p4780
sI4858
S'4374523'
p4781
sI4859
S'5572374'
p4782
sI4860
S'7798559'
p4783
sI4861
S'6167683'
p4784
sI4862
S'6167682'
p4785
sI4863
S'3334361'
p4786
sI4864
S'3334360'
p4787
sI4865
S'537324'
p4788
sI4866
S'4136596'
p4789
sI4867
S'13204288'
p4790
sI4868
S'2051675'
p4791
sI4869
S'15603806'
p4792
sI4870
S'10490263'
p4793
sI4871
S'7803602'
p4794
sI4872
S'2993449'
p4795
sI4873
S'14356295'
p4796
sI4874
S'3236301'
p4797
sI4875
S'5849386'
p4798
sI4876
S'5433287'
p4799
sI4877
S'14780695'
p4800
sI4878
S'11039092'
p4801
sI4879
S'4198153'
p4802
sI4880
S'12381491'
p4803
sI4881
S'9662802'
p4804
sI4882
S'4279550'
p4805
sI4883
S'1824965'
p4806
sI4884
S'692567'
p4807
sI4885
S'5934108'
p4808
sI4886
S'10647977'
p4809
sI4887
S'4317172'
p4810
sI4888
S'12225271'
p4811
sI4889
S'15765087'
p4812
sI4890
S'15535248'
p4813
sI4891
S'7698923'
p4814
sI4892
S'735752'
p4815
sI4893
S'10682536'
p4816
sI4894
S'12189797'
p4817
sI4895
S'17173473'
p4818
sI4896
S'2074833'
p4819
sI4897
S'7361434'
p4820
sI4898
S'14327689'
p4821
sI4899
S'3344918'
p4822
sI4900
S'15192082'
p4823
sI4901
S'2631224'
p4824
sI4902
S'16792622'
p4825
sI4903
S'13330683'
p4826
sI4904
S'15485880'
p4827
sI4905
S'13777018'
p4828
sI4906
S'4178851'
p4829
sI4907
S'4765033'
p4830
sI4908
S'15912981'
p4831
sI4909
S'9745484'
p4832
sI4910
S'5859899'
p4833
sI4911
S'15255545'
p4834
sI4912
S'2590590'
p4835
sI4913
S'679800'
p4836
sI4914
S'1359599'
p4837
sI4915
S'4013668'
p4838
sI4916
S'14843849'
p4839
sI4917
S'13238211'
p4840
sI4918
S'1205216'
p4841
sI4919
S'14667844'
p4842
sI4920
S'15929932'
p4843
sI4921
S'15021331'
p4844
sI4922
S'11039890'
p4845
sI4923
S'2238389'
p4846
sI4924
S'16023779'
p4847
sI4925
S'7809295'
p4848
sI4926
S'5712663'
p4849
sI4927
S'1492286'
p4850
sI4928
S'12408850'
p4851
sI4929
S'7859723'
p4852
sI4930
S'450440'
p4853
sI4931
S'16190577'
p4854
sI4932
S'4792136'
p4855
sI4933
S'10967386'
p4856
sI4934
S'1370405'
p4857
sI4935
S'458134'
p4858
sI4936
S'2736911'
p4859
sI4937
S'3121325'
p4860
sI4938
S'1560573'
p4861
sI4939
S'4504049'
p4862
sI4940
S'873610'
p4863
sI4941
S'16883813'
p4864
sI4942
S'14745847'
p4865
sI4943
S'10612067'
p4866
sI4944
S'14556634'
p4867
sI4945
S'9095082'
p4868
sI4946
S'4573302'
p4869
sI4947
S'13028723'
p4870
sI4948
S'4813767'
p4871
sI4949
S'13673552'
p4872
sI4950
S'3513303'
p4873
sI4951
S'8750901'
p4874
sI4952
S'8227818'
p4875
sI4953
S'5265475'
p4876
sI4954
S'3506399'
p4877
sI4955
S'11511688'
p4878
sI4956
S'8613171'
p4879
sI4957
S'329064'
p4880
sI4958
S'6777603'
p4881
sI4959
S'6492185'
p4882
sI4960
S'7581744'
p4883
sI4961
S'1832659'
p4884
sI4962
S'2055819'
p4885
sI4963
S'12106132'
p4886
sI4964
S'8652866'
p4887
sI4965
S'13939419'
p4888
sI4966
S'658366'
p4889
sI4967
S'9401508'
p4890
sI4968
S'6692633'
p4891
sI4969
S'7974235'
p4892
sI4970
S'7350284'
p4893
sI4971
S'13429298'
p4894
sI4972
S'3208904'
p4895
sI4973
S'719621'
p4896
sI4974
S'5122518'
p4897
sI4975
S'7510770'
p4898
sI4976
S'2262805'
p4899
sI4977
S'1708541'
p4900
sI4978
S'6461553'
p4901
sI4979
S'677793'
p4902
sI4980
S'10101135'
p4903
sI4981
S'11522815'
p4904
sI4982
S'1914185'
p4905
sI4983
S'9563436'
p4906
sI4984
S'7293330'
p4907
sI4985
S'15832811'
p4908
sI4986
S'1467025'
p4909
sI4987
S'5502282'
p4910
sI4988
S'808705'
p4911
sI4989
S'2495241'
p4912
sI4990
S'2072204'
p4913
sI4991
S'521672'
p4914
sI4992
S'14314'
p4915
sI4993
S'9730168'
p4916
sI4994
S'15288601'
p4917
sI4995
S'13897860'
p4918
sI4996
S'13617047'
p4919
sI4997
S'14592777'
p4920
sI4998
S'4023422'
p4921
sI4999
S'13786392'
p4922
sI5000
S'2274334'
p4923
sI5001
S'4750486'
p4924
sI5002
S'14335272'
p4925
sI5003
S'13155610'
p4926
sI5004
S'4308633'
p4927
sI5005
S'15060431'
p4928
sI5006
S'9260415'
p4929
sI5007
S'13945103'
p4930
sI5008
S'8042732'
p4931
sI5009
S'559957'
p4932
sI5010
S'517626'
p4933
sI5011
S'7555693'
p4934
sI5012
S'5562962'
p4935
sI5013
S'16172718'
p4936
sI5014
S'2563440'
p4937
sI5015
S'7277230'
p4938
sI5016
S'9821370'
p4939
sI5017
S'2136200'
p4940
sI5018
S'11885657'
p4941
sI5019
S'14981454'
p4942
sI5020
S'536578'
p4943
sI5021
S'10208954'
p4944
sI5022
S'12730083'
p4945
sI5023
S'11315578'
p4946
sI5024
S'8407963'
p4947
sI5025
S'7534543'
p4948
sI5026
S'15630557'
p4949
sI5027
S'16009487'
p4950
sI5028
S'12148081'
p4951
sI5029
S'10224564'
p4952
sI5030
S'14357405'
p4953
sI5031
S'15267850'
p4954
sI5032
S'13047885'
p4955
sI5033
S'12739861'
p4956
sI5034
S'13745575'
p4957
sI5035
S'14450268'
p4958
sI5036
S'14322269'
p4959
sI5037
S'3401083'
p4960
sI5038
S'15251349'
p4961
sI5039
S'13762797'
p4962
sI5040
S'14608732'
p4963
sI5041
S'3875294'
p4964
sI5042
S'9616924'
p4965
sI5043
S'14818164'
p4966
sI5044
S'4251839'
p4967
sI5045
S'10136996'
p4968
sI5046
S'10136994'
p4969
sI5047
S'13917029'
p4970
sI5048
S'6644449'
p4971
sI5049
S'14406693'
p4972
sI5050
S'6363059'
p4973
sI5051
S'8621113'
p4974
sI5052
S'3940301'
p4975
sI5053
S'10056541'
p4976
sI5054
S'4803750'
p4977
sI5055
S'10887847'
p4978
sI5056
S'13622452'
p4979
sI5057
S'1359513'
p4980
sI5058
S'7652877'
p4981
sI5059
S'872069'
p4982
sI5060
S'6854304'
p4983
sI5061
S'161996'
p4984
sI5062
S'7490286'
p4985
sI5063
S'17238536'
p4986
sI5064
S'4456618'
p4987
sI5065
S'13935822'
p4988
sI5066
S'16755248'
p4989
sI5067
S'13220125'
p4990
sI5068
S'2461673'
p4991
sI5069
S'253811'
p4992
sI5070
S'4589167'
p4993
sI5071
S'13315551'
p4994
sI5072
S'14550985'
p4995
sI5073
S'13315553'
p4996
sI5074
S'6678262'
p4997
sI5075
S'488249'
p4998
sI5076
S'9221158'
p4999
sI5077
S'7387521'
p5000
sI5078
S'3780715'
p5001
sI5079
S'2543303'
p5002
sI5080
S'15127414'
p5003
sI5081
S'5511067'
p5004
sI5082
S'1191606'
p5005
sI5083
S'5602200'
p5006
sI5084
S'13496019'
p5007
sI5085
S'12136987'
p5008
sI5086
S'15205915'
p5009
sI5087
S'17135'
p5010
sI5088
S'16067849'
p5011
sI5089
S'9477489'
p5012
sI5090
S'1472009'
p5013
sI5091
S'13251869'
p5014
sI5092
S'12302561'
p5015
sI5093
S'4095945'
p5016
sI5094
S'6678082'
p5017
sI5095
S'16401975'
p5018
sI5096
S'16056780'
p5019
sI5097
S'6886371'
p5020
sI5098
S'251277'
p5021
sI5099
S'2413208'
p5022
sI5100
S'13938420'
p5023
sI5101
S'13605065'
p5024
sI5102
S'10853955'
p5025
sI5103
S'6427200'
p5026
sI5104
S'470498'
p5027
sI5105
S'4182158'
p5028
sI5106
S'756801'
p5029
sI5107
S'9691588'
p5030
sI5108
S'13741686'
p5031
sI5109
S'14874823'
p5032
sI5110
S'9885501'
p5033
sI5111
S'7851631'
p5034
sI5112
S'15675520'
p5035
sI5113
S'3687227'
p5036
sI5114
S'9415109'
p5037
sI5115
S'15582903'
p5038
sI5116
S'11044453'
p5039
sI5117
S'351859'
p5040
sI5118
S'8007182'
p5041
sI5119
S'7967811'
p5042
sI5120
S'7499674'
p5043
sI5121
S'13803370'
p5044
sI5122
S'12723523'
p5045
sI5123
S'2021099'
p5046
sI5124
S'5183502'
p5047
sI5125
S'2290645'
p5048
sI5126
S'15648887'
p5049
sI5127
S'2022308'
p5050
sI5128
S'8662518'
p5051
sI5129
S'243285'
p5052
sI5130
S'14253050'
p5053
sI5131
S'3354484'
p5054
sI5132
S'4074892'
p5055
sI5133
S'565531'
p5056
sI5134
S'12308043'
p5057
sI5135
S'10940559'
p5058
sI5136
S'13398697'
p5059
sI5137
S'14653286'
p5060
sI5138
S'10083682'
p5061
sI5139
S'3780206'
p5062
sI5140
S'7700741'
p5063
sI5141
S'8525172'
p5064
sI5142
S'7808565'
p5065
sI5143
S'364785'
p5066
sI5144
S'16230221'
p5067
sI5145
S'17285375'
p5068
sI5146
S'2144033'
p5069
sI5147
S'1097816'
p5070
sI5148
S'14215932'
p5071
sI5149
S'13398340'
p5072
sI5150
S'9436315'
p5073
sI5151
S'4510263'
p5074
sI5152
S'1863930'
p5075
sI5153
S'8571594'
p5076
sI5154
S'3153603'
p5077
sI5155
S'9767864'
p5078
sI5156
S'9026947'
p5079
sI5157
S'9612294'
p5080
sI5158
S'13765146'
p5081
sI5159
S'508117'
p5082
sI5160
S'5068125'
p5083
sI5161
S'12631377'
p5084
sI5162
S'16520760'
p5085
sI5163
S'786053'
p5086
sI5164
S'7500903'
p5087
sI5165
S'16188366'
p5088
sI5166
S'12468103'
p5089
sI5167
S'7417444'
p5090
sI5168
S'13903497'
p5091
sI5169
S'16455981'
p5092
sI5170
S'14138706'
p5093
sI5171
S'6596562'
p5094
sI5172
S'9281747'
p5095
sI5173
S'1031680'
p5096
sI5174
S'15453573'
p5097
sI5175
S'13344426'
p5098
sI5176
S'13900417'
p5099
sI5177
S'953753'
p5100
sI5178
S'7153138'
p5101
sI5179
S'6256470'
p5102
sI5180
S'13109381'
p5103
sI5181
S'5106823'
p5104
sI5182
S'704838'
p5105
sI5183
S'10242095'
p5106
sI5184
S'13685871'
p5107
sI5185
S'31994'
p5108
sI5186
S'15249079'
p5109
sI5187
S'12472531'
p5110
sI5188
S'9060130'
p5111
sI5189
S'6738207'
p5112
sI5190
S'1110699'
p5113
sI5191
S'343971'
p5114
sI5192
S'8013947'
p5115
sI5193
S'15854512'
p5116
sI5194
S'15094172'
p5117
sI5195
S'256506'
p5118
sI5196
S'696464'
p5119
sI5197
S'5911997'
p5120
sI5198
S'8045552'
p5121
sI5199
S'16527255'
p5122
sI5200
S'15181459'
p5123
sI5201
S'9093593'
p5124
sI5202
S'15042453'
p5125
sI5203
S'153405'
p5126
sI5204
S'15066761'
p5127
sI5205
S'15582736'
p5128
sI5206
S'14769926'
p5129
sI5207
S'458154'
p5130
sI5208
S'3520447'
p5131
sI5209
S'8881955'
p5132
sI5210
S'10405694'
p5133
sI5211
S'3312041'
p5134
sI5212
S'14220223'
p5135
sI5213
S'12916073'
p5136
sI5214
S'14703292'
p5137
sI5215
S'8166617'
p5138
sI5216
S'9073438'
p5139
sI5217
S'671303'
p5140
sI5218
S'2046789'
p5141
sI5219
S'5536998'
p5142
sI5220
S'11348540'
p5143
sI5221
S'1264621'
p5144
sI5222
S'450393'
p5145
sI5223
S'1839341'
p5146
sI5224
S'4493658'
p5147
sI5225
S'5383005'
p5148
sI5226
S'2017517'
p5149
sI5227
S'4249342'
p5150
sI5228
S'10057973'
p5151
sI5229
S'15983702'
p5152
sI5230
S'8932901'
p5153
sI5231
S'4974843'
p5154
sI5232
S'5470215'
p5155
sI5233
S'6642187'
p5156
sI5234
S'489924'
p5157
sI5235
S'5785674'
p5158
sI5236
S'3270009'
p5159
sI5237
S'1696050'
p5160
sI5238
S'16352783'
p5161
sI5239
S'10470258'
p5162
sI5240
S'4366109'
p5163
sI5241
S'9348579'
p5164
sI5242
S'7070734'
p5165
sI5243
S'2043329'
p5166
sI5244
S'15869053'
p5167
sI5245
S'7726982'
p5168
sI5246
S'13183562'
p5169
sI5247
S'3457939'
p5170
sI5248
S'13668230'
p5171
sI5249
S'7880066'
p5172
sI5250
S'3447361'
p5173
sI5251
S'4171692'
p5174
sI5252
S'2792632'
p5175
sI5253
S'9013133'
p5176
sI5254
S'7875486'
p5177
sI5255
S'16154699'
p5178
sI5256
S'3379729'
p5179
sI5257
S'14839682'
p5180
sI5258
S'6955782'
p5181
sI5259
S'1656539'
p5182
sI5260
S'9937558'
p5183
sI5261
S'13116397'
p5184
sI5262
S'837282'
p5185
sI5263
S'16390798'
p5186
sI5264
S'14374'
p5187
sI5265
S'12822815'
p5188
sI5266
S'12778072'
p5189
sI5267
S'20300'
p5190
sI5268
S'12109533'
p5191
sI5269
S'12171671'
p5192
sI5270
S'4974709'
p5193
sI5271
S'9476759'
p5194
sI5272
S'4305168'
p5195
sI5273
S'14378148'
p5196
sI5274
S'12728122'
p5197
sI5275
S'8061409'
p5198
sI5276
S'9035181'
p5199
sI5277
S'4810558'
p5200
sI5278
S'9810729'
p5201
sI5279
S'819206'
p5202
sI5280
S'3946201'
p5203
sI5281
S'8955886'
p5204
sI5282
S'2416016'
p5205
sI5283
S'15361587'
p5206
sI5284
S'9408123'
p5207
sI5285
S'16514343'
p5208
sI5286
S'3171480'
p5209
sI5287
S'16716676'
p5210
sI5288
S'729841'
p5211
sI5289
S'28907'
p5212
sI5290
S'15463202'
p5213
sI5291
S'5619149'
p5214
sI5292
S'13895263'
p5215
sI5293
S'5184571'
p5216
sI5294
S'14332446'
p5217
sI5295
S'644575'
p5218
sI5296
S'14927715'
p5219
sI5297
S'8228217'
p5220
sI5298
S'9256276'
p5221
sI5299
S'14020260'
p5222
sI5300
S'16162190'
p5223
sI5301
S'3629381'
p5224
sI5302
S'7817446'
p5225
sI5303
S'8669988'
p5226
sI5304
S'4169094'
p5227
sI5305
S'842167'
p5228
sI5306
S'777297'
p5229
sI5307
S'4128337'
p5230
sI5308
S'11334152'
p5231
sI5309
S'231194'
p5232
sI5310
S'10411712'
p5233
sI5311
S'11334624'
p5234
sI5312
S'13782654'
p5235
sI5313
S'2487851'
p5236
sI5314
S'829215'
p5237
sI5315
S'595321'
p5238
sI5316
S'15967392'
p5239
sI5317
S'17011804'
p5240
sI5318
S'11891948'
p5241
sI5319
S'7399917'
p5242
sI5320
S'13495567'
p5243
sI5321
S'13431422'
p5244
sI5322
S'12669490'
p5245
sI5323
S'14669267'
p5246
sI5324
S'6545310'
p5247
sI5325
S'7095888'
p5248
sI5326
S'9473760'
p5249
sI5327
S'826307'
p5250
sI5328
S'9215569'
p5251
sI5329
S'12704039'
p5252
sI5330
S'8473532'
p5253
sI5331
S'13715111'
p5254
sI5332
S'15860091'
p5255
sI5333
S'16601748'
p5256
sI5334
S'9672054'
p5257
sI5335
S'424667'
p5258
sI5336
S'353298'
p5259
sI5337
S'9752548'
p5260
sI5338
S'7541249'
p5261
sI5339
S'4232559'
p5262
sI5340
S'13466084'
p5263
sI5341
S'6947730'
p5264
sI5342
S'5641857'
p5265
sI5343
S'14126303'
p5266
sI5344
S'4967506'
p5267
sI5345
S'10143655'
p5268
sI5346
S'13634685'
p5269
sI5347
S'10806401'
p5270
sI5348
S'3220820'
p5271
sI5349
S'1954450'
p5272
sI5350
S'9975425'
p5273
sI5351
S'10339057'
p5274
sI5352
S'7084621'
p5275
sI5353
S'6094597'
p5276
sI5354
S'5839029'
p5277
sI5355
S'6750443'
p5278
sI5356
S'14179691'
p5279
sI5357
S'479867'
p5280
sI5358
S'3766770'
p5281
sI5359
S'16321624'
p5282
sI5360
S'9405895'
p5283
sI5361
S'6088619'
p5284
sI5362
S'16599362'
p5285
sI5363
S'14788520'
p5286
sI5364
S'5686255'
p5287
sI5365
S'14296598'
p5288
sI5366
S'13393930'
p5289
sI5367
S'10262473'
p5290
sI5368
S'12929858'
p5291
sI5369
S'11318587'
p5292
sI5370
S'535352'
p5293
sI5371
S'616846'
p5294
sI5372
S'13942921'
p5295
sI5373
S'3404668'
p5296
sI5374
S'11045529'
p5297
sI5375
S'253806'
p5298
sI5376
S'11344102'
p5299
sI5377
S'9195975'
p5300
sI5378
S'6197760'
p5301
sI5379
S'799319'
p5302
sI5380
S'14402223'
p5303
sI5381
S'15395032'
p5304
sI5382
S'944840'
p5305
sI5383
S'3688008'
p5306
sI5384
S'8443396'
p5307
sI5385
S'13076524'
p5308
sI5386
S'6656567'
p5309
sI5387
S'1256707'
p5310
sI5388
S'12357269'
p5311
sI5389
S'4098078'
p5312
sI5390
S'3930149'
p5313
sI5391
S'2189115'
p5314
sI5392
S'8208090'
p5315
sI5393
S'368081'
p5316
sI5394
S'2349737'
p5317
sI5395
S'1327553'
p5318
sI5396
S'10017170'
p5319
sI5397
S'11658757'
p5320
sI5398
S'2545184'
p5321
sI5399
S'11843397'
p5322
sI5400
S'2738669'
p5323
sI5401
S'10801474'
p5324
sI5402
S'13307983'
p5325
sI5403
S'16469710'
p5326
sI5404
S'1342296'
p5327
sI5405
S'1880539'
p5328
sI5406
S'15869288'
p5329
sI5407
S'10073940'
p5330
sI5408
S'8800996'
p5331
sI5409
S'12987735'
p5332
sI5410
S'2057295'
p5333
sI5411
S'13112895'
p5334
sI5412
S'9851704'
p5335
sI5413
S'6958924'
p5336
sI5414
S'3378289'
p5337
sI5415
S'10036516'
p5338
sI5416
S'14682338'
p5339
sI5417
S'9544914'
p5340
sI5418
S'11924652'
p5341
sI5419
S'4464551'
p5342
sI5420
S'1684053'
p5343
sI5421
S'10127534'
p5344
sI5422
S'5600260'
p5345
sI5423
S'7972825'
p5346
sI5424
S'7321292'
p5347
sI5425
S'2659448'
p5348
sI5426
S'4469264'
p5349
sI5427
S'6800799'
p5350
sI5428
S'9023443'
p5351
sI5429
S'814616'
p5352
sI5430
S'7365481'
p5353
sI5431
S'11170672'
p5354
sI5432
S'6029156'
p5355
sI5433
S'2022729'
p5356
sI5434
S'13960295'
p5357
sI5435
S'14649979'
p5358
sI5436
S'14926631'
p5359
sI5437
S'4234072'
p5360
sI5438
S'14824162'
p5361
sI5439
S'3190502'
p5362
sI5440
S'7936161'
p5363
sI5441
S'910976'
p5364
sI5442
S'2115061'
p5365
sI5443
S'13770680'
p5366
sI5444
S'9129846'
p5367
sI5445
S'9751394'
p5368
sI5446
S'12309858'
p5369
sI5447
S'3425822'
p5370
sI5448
S'12174966'
p5371
sI5449
S'291728'
p5372
sI5450
S'16320197'
p5373
sI5451
S'11219289'
p5374
sI5452
S'14141622'
p5375
sI5453
S'8106619'
p5376
sI5454
S'87853'
p5377
sI5455
S'7984555'
p5378
sI5456
S'14755396'
p5379
sI5457
S'3984077'
p5380
sI5458
S'1672433'
p5381
sI5459
S'12454556'
p5382
sI5460
S'1273533'
p5383
sI5461
S'15888295'
p5384
sI5462
S'4257392'
p5385
sI5463
S'7554458'
p5386
sI5464
S'4829509'
p5387
sI5465
S'5413565'
p5388
sI5466
S'14961122'
p5389
sI5467
S'15338657'
p5390
sI5468
S'15115474'
p5391
sI5469
S'763878'
p5392
sI5470
S'489018'
p5393
sI5471
S'15565742'
p5394
sI5472
S'5261913'
p5395
sI5473
S'9073987'
p5396
sI5474
S'3980487'
p5397
sI5475
S'193393'
p5398
sI5476
S'2075600'
p5399
sI5477
S'852118'
p5400
sI5478
S'9459037'
p5401
sI5479
S'8590198'
p5402
sI5480
S'10569249'
p5403
sI5481
S'3944200'
p5404
sI5482
S'6006530'
p5405
sI5483
S'535631'
p5406
sI5484
S'7686940'
p5407
sI5485
S'4052514'
p5408
sI5486
S'5428573'
p5409
sI5487
S'832762'
p5410
sI5488
S'3605524'
p5411
sI5489
S'4092826'
p5412
sI5490
S'3531345'
p5413
sI5491
S'3908088'
p5414
sI5492
S'1291913'
p5415
sI5493
S'2489407'
p5416
sI5494
S'13511347'
p5417
sI5495
S'15066527'
p5418
sI5496
S'15649031'
p5419
sI5497
S'12619450'
p5420
sI5498
S'8667280'
p5421
sI5499
S'247000'
p5422
sI5500
S'14050591'
p5423
sI5501
S'9727486'
p5424
sI5502
S'2870840'
p5425
sI5503
S'14265052'
p5426
sI5504
S'9298133'
p5427
sI5505
S'14967970'
p5428
sI5506
S'4408381'
p5429
sI5507
S'10475237'
p5430
sI5508
S'5589339'
p5431
sI5509
S'790679'
p5432
sI5510
S'6767661'
p5433
sI5511
S'4984951'
p5434
sI5512
S'10568594'
p5435
sI5513
S'4490787'
p5436
sI5514
S'7887966'
p5437
sI5515
S'8104504'
p5438
sI5516
S'794567'
p5439
sI5517
S'596373'
p5440
sI5518
S'1041218'
p5441
sI5519
S'9328727'
p5442
sI5520
S'11486601'
p5443
sI5521
S'6150778'
p5444
sI5522
S'7367165'
p5445
sI5523
S'9577006'
p5446
sI5524
S'10464709'
p5447
sI5525
S'3411380'
p5448
sI5526
S'4070169'
p5449
sI5527
S'13305931'
p5450
sI5528
S'2967375'
p5451
sI5529
S'16508710'
p5452
sI5530
S'9779960'
p5453
sI5531
S'14739030'
p5454
sI5532
S'6370889'
p5455
sI5533
S'530074'
p5456
sI5534
S'8689608'
p5457
sI5535
S'6029987'
p5458
sI5536
S'4831130'
p5459
sI5537
S'3877362'
p5460
sI5538
S'587554'
p5461
sI5539
S'148568'
p5462
sI5540
S'36069'
p5463
sI5541
S'7734226'
p5464
sI5542
S'15004560'
p5465
sI5543
S'849409'
p5466
sI5544
S'182062'
p5467
sI5545
S'10265988'
p5468
sI5546
S'9016650'
p5469
sI5547
S'12826361'
p5470
sI5548
S'7453831'
p5471
sI5549
S'4651112'
p5472
sI5550
S'8762308'
p5473
sI5551
S'10728179'
p5474
sI5552
S'8235932'
p5475
sI5553
S'704068'
p5476
sI5554
S'2405505'
p5477
sI5555
S'9342019'
p5478
sI5556
S'14525948'
p5479
sI5557
S'8879767'
p5480
sI5558
S'12728494'
p5481
sI5559
S'11323125'
p5482
sI5560
S'5029204'
p5483
sI5561
S'5549706'
p5484
sI5562
S'11472498'
p5485
sI5563
S'5094593'
p5486
sI5564
S'3067670'
p5487
sI5565
S'7620763'
p5488
sI5566
S'15963447'
p5489
sI5567
S'11509333'
p5490
sI5568
S'2271637'
p5491
sI5569
S'819228'
p5492
sI5570
S'9079721'
p5493
sI5571
S'352651'
p5494
sI5572
S'15191216'
p5495
sI5573
S'13787889'
p5496
sI5574
S'8459696'
p5497
sI5575
S'2102542'
p5498
sI5576
S'2752977'
p5499
sI5577
S'5797107'
p5500
sI5578
S'15874648'
p5501
sI5579
S'9926792'
p5502
sI5580
S'433914'
p5503
sI5581
S'267294'
p5504
sI5582
S'6992939'
p5505
sI5583
S'15949915'
p5506
sI5584
S'8250729'
p5507
sI5585
S'14427304'
p5508
sI5586
S'8015959'
p5509
sI5587
S'6169283'
p5510
sI5588
S'12301489'
p5511
sI5589
S'838586'
p5512
sI5590
S'14114099'
p5513
sI5591
S'4235620'
p5514
sI5592
S'1132201'
p5515
sI5593
S'6671557'
p5516
sI5594
S'3276963'
p5517
sI5595
S'8066555'
p5518
sI5596
S'9887396'
p5519
sI5597
S'4829779'
p5520
sI5598
S'14870440'
p5521
sI5599
S'12496118'
p5522
sI5600
S'4276762'
p5523
sI5601
S'9404709'
p5524
sI5602
S'4444204'
p5525
sI5603
S'13167264'
p5526
sI5604
S'15042536'
p5527
sI5605
S'3206224'
p5528
sI5606
S'15703117'
p5529
sI5607
S'344019'
p5530
sI5608
S'2092611'
p5531
sI5609
S'13407615'
p5532
sI5610
S'9945515'
p5533
sI5611
S'2314406'
p5534
sI5612
S'7699516'
p5535
sI5613
S'5370580'
p5536
sI5614
S'14884485'
p5537
sI5615
S'16331974'
p5538
sI5616
S'6480685'
p5539
sI5617
S'13689706'
p5540
sI5618
S'15964139'
p5541
sI5619
S'6473307'
p5542
sI5620
S'13496230'
p5543
sI5621
S'9022864'
p5544
sI5622
S'801281'
p5545
sI5623
S'12307040'
p5546
sI5624
S'2431210'
p5547
sI5625
S'13783508'
p5548
sI5626
S'13979694'
p5549
sI5627
S'6749285'
p5550
sI5628
S'15917278'
p5551
sI5629
S'9925349'
p5552
sI5630
S'12969060'
p5553
sI5631
S'5734824'
p5554
sI5632
S'7030296'
p5555
sI5633
S'4430808'
p5556
sI5634
S'11585636'
p5557
sI5635
S'1598785'
p5558
sI5636
S'1511303'
p5559
sI5637
S'13551312'
p5560
sI5638
S'16415769'
p5561
sI5639
S'1300967'
p5562
sI5640
S'15602868'
p5563
sI5641
S'6227971'
p5564
sI5642
S'4803406'
p5565
sI5643
S'4711148'
p5566
sI5644
S'15093432'
p5567
sI5645
S'3661168'
p5568
sI5646
S'13449844'
p5569
sI5647
S'9823505'
p5570
sI5648
S'15187714'
p5571
sI5649
S'12829031'
p5572
sI5650
S'5804184'
p5573
sI5651
S'15802947'
p5574
sI5652
S'10591658'
p5575
sI5653
S'9198992'
p5576
sI5654
S'5256554'
p5577
sI5655
S'9525925'
p5578
sI5656
S'13840812'
p5579
sI5657
S'8909891'
p5580
sI5658
S'7036474'
p5581
sI5659
S'290457'
p5582
sI5660
S'7686178'
p5583
sI5661
S'10343542'
p5584
sI5662
S'8468835'
p5585
sI5663
S'414801'
p5586
sI5664
S'9178165'
p5587
sI5665
S'14215681'
p5588
sI5666
S'6886846'
p5589
sI5667
S'883480'
p5590
sI5668
S'12915361'
p5591
sI5669
S'6494312'
p5592
sI5670
S'11801942'
p5593
sI5671
S'3886995'
p5594
sI5672
S'187566'
p5595
sI5673
S'4347219'
p5596
sI5674
S'6685697'
p5597
sI5675
S'15327600'
p5598
sI5676
S'9363417'
p5599
sI5677
S'15135321'
p5600
sI5678
S'12607802'
p5601
sI5679
S'7264510'
p5602
sI5680
S'8443516'
p5603
sI5681
S'12176339'
p5604
sI5682
S'10179210'
p5605
sI5683
S'5804451'
p5606
sI5684
S'14281526'
p5607
sI5685
S'7917779'
p5608
sI5686
S'1970697'
p5609
sI5687
S'15178955'
p5610
sI5688
S'13464122'
p5611
sI5689
S'14373121'
p5612
sI5690
S'226021'
p5613
sI5691
S'14502728'
p5614
sI5692
S'13239693'
p5615
sI5693
S'11345566'
p5616
sI5694
S'13379064'
p5617
sI5695
S'9447653'
p5618
sI5696
S'9447650'
p5619
sI5697
S'1876810'
p5620
sI5698
S'1876811'
p5621
sI5699
S'2329807'
p5622
sI5700
S'15990206'
p5623
sI5701
S'16813292'
p5624
sI5702
S'3852261'
p5625
sI5703
S'888905'
p5626
sI5704
S'11513480'
p5627
sI5705
S'13860167'
p5628
sI5706
S'16266920'
p5629
sI5707
S'271694'
p5630
sI5708
S'6246825'
p5631
sI5709
S'876792'
p5632
sI5710
S'7036290'
p5633
sI5711
S'7441587'
p5634
sI5712
S'16296665'
p5635
sI5713
S'15634281'
p5636
sI5714
S'16860728'
p5637
sI5715
S'7019534'
p5638
sI5716
S'38780'
p5639
sI5717
S'14945274'
p5640
sI5718
S'8219346'
p5641
sI5719
S'16987148'
p5642
sI5720
S'788035'
p5643
sI5721
S'15979823'
p5644
sI5722
S'6244461'
p5645
sI5723
S'13883020'
p5646
sI5724
S'6626911'
p5647
sI5725
S'12979100'
p5648
sI5726
S'11961685'
p5649
sI5727
S'14105094'
p5650
sI5728
S'10043483'
p5651
sI5729
S'3465604'
p5652
sI5730
S'4428027'
p5653
sI5731
S'6881867'
p5654
sI5732
S'8069030'
p5655
sI5733
S'31332'
p5656
sI5734
S'4642269'
p5657
sI5735
S'14487072'
p5658
sI5736
S'13121'
p5659
sI5737
S'12341450'
p5660
sI5738
S'3914400'
p5661
sI5739
S'15491953'
p5662
sI5740
S'4281241'
p5663
sI5741
S'47370'
p5664
sI5742
S'3604145'
p5665
sI5743
S'2831424'
p5666
sI5744
S'16332711'
p5667
sI5745
S'1307123'
p5668
sI5746
S'12367691'
p5669
sI5747
S'15835247'
p5670
sI5748
S'13031826'
p5671
sI5749
S'4138024'
p5672
sI5750
S'10082617'
p5673
sI5751
S'3848324'
p5674
sI5752
S'10446989'
p5675
sI5753
S'7527594'
p5676
sI5754
S'15902160'
p5677
sI5755
S'4379181'
p5678
sI5756
S'16392447'
p5679
sI5757
S'8117153'
p5680
sI5758
S'11438561'
p5681
sI5759
S'6957272'
p5682
sI5760
S'733039'
p5683
sI5761
S'10045963'
p5684
sI5762
S'14305404'
p5685
sI5763
S'8045842'
p5686
sI5764
S'206071'
p5687
sI5765
S'292121'
p5688
sI5766
S'1949657'
p5689
sI5767
S'7397916'
p5690
sI5768
S'17107018'
p5691
sI5769
S'2092422'
p5692
sI5770
S'6180741'
p5693
sI5771
S'12054723'
p5694
sI5772
S'9905122'
p5695
sI5773
S'10386998'
p5696
sI5774
S'13607462'
p5697
sI5775
S'6553553'
p5698
sI5776
S'981410'
p5699
sI5777
S'5491149'
p5700
sI5778
S'5728806'
p5701
sI5779
S'13083445'
p5702
sI5780
S'10729750'
p5703
sI5781
S'15917511'
p5704
sI5782
S'741797'
p5705
sI5783
S'5941782'
p5706
sI5784
S'12681144'
p5707
sI5785
S'176135'
p5708
sI5786
S'16289576'
p5709
sI5787
S'568743'
p5710
sI5788
S'532398'
p5711
sI5789
S'9733741'
p5712
sI5790
S'816673'
p5713
sI5791
S'12521681'
p5714
sI5792
S'654612'
p5715
sI5793
S'16242174'
p5716
sI5794
S'6371373'
p5717
sI5795
S'11044578'
p5718
sI5796
S'4231819'
p5719
sI5797
S'3081771'
p5720
sI5798
S'10164008'
p5721
sI5799
S'14809342'
p5722
sI5800
S'3238517'
p5723
sI5801
S'1171635'
p5724
sI5802
S'7917251'
p5725
sI5803
S'4037426'
p5726
sI5804
S'8680891'
p5727
sI5805
S'7883623'
p5728
sI5806
S'13673242'
p5729
sI5807
S'1598863'
p5730
sI5808
S'4365756'
p5731
sI5809
S'7064935'
p5732
sI5810
S'9904386'
p5733
sI5811
S'5892794'
p5734
sI5812
S'6591796'
p5735
sI5813
S'13078772'
p5736
sI5814
S'4416970'
p5737
sI5815
S'14628080'
p5738
sI5816
S'5430017'
p5739
sI5817
S'3139918'
p5740
sI5818
S'9146595'
p5741
sI5819
S'6955434'
p5742
sI5820
S'7987167'
p5743
sI5821
S'9574282'
p5744
sI5822
S'8071607'
p5745
sI5823
S'6816981'
p5746
sI5824
S'9683697'
p5747
sI5825
S'9189508'
p5748
sI5826
S'2086732'
p5749
sI5827
S'13326890'
p5750
sI5828
S'12066474'
p5751
sI5829
S'9614785'
p5752
sI5830
S'4482166'
p5753
sI5831
S'2197725'
p5754
sI5832
S'4304346'
p5755
sI5833
S'19601'
p5756
sI5834
S'12611122'
p5757
sI5835
S'10848283'
p5758
sI5836
S'7435200'
p5759
sI5837
S'3543562'
p5760
sI5838
S'8957301'
p5761
sI5839
S'8941820'
p5762
sI5840
S'1502018'
p5763
sI5841
S'10637554'
p5764
sI5842
S'15126862'
p5765
sI5843
S'6167141'
p5766
sI5844
S'10124430'
p5767
sI5845
S'9028493'
p5768
sI5846
S'40039'
p5769
sI5847
S'3852988'
p5770
sI5848
S'1766843'
p5771
sI5849
S'2329493'
p5772
sI5850
S'5670350'
p5773
sI5851
S'10515838'
p5774
sI5852
S'68974'
p5775
sI5853
S'2377514'
p5776
sI5854
S'14178943'
p5777
sI5855
S'326956'
p5778
sI5856
S'8519507'
p5779
sI5857
S'785204'
p5780
sI5858
S'15003754'
p5781
sI5859
S'5904098'
p5782
sI5860
S'10518518'
p5783
sI5861
S'14087436'
p5784
sI5862
S'7762998'
p5785
sI5863
S'5873343'
p5786
sI5864
S'7967922'
p5787
sI5865
S'15289313'
p5788
sI5866
S'9596608'
p5789
sI5867
S'10251768'
p5790
sI5868
S'6197134'
p5791
sI5869
S'11453107'
p5792
sI5870
S'11068607'
p5793
sI5871
S'9664497'
p5794
sI5872
S'1330430'
p5795
sI5873
S'8796876'
p5796
sI5874
S'8550184'
p5797
sI5875
S'12088765'
p5798
sI5876
S'8642982'
p5799
sI5877
S'7820664'
p5800
sI5878
S'16283931'
p5801
sI5879
S'15233188'
p5802
sI5880
S'13355002'
p5803
sI5881
S'325429'
p5804
sI5882
S'14935151'
p5805
sI5883
S'50726'
p5806
sI5884
S'2942129'
p5807
sI5885
S'5205123'
p5808
sI5886
S'4540408'
p5809
sI5887
S'15980715'
p5810
sI5888
S'3362649'
p5811
sI5889
S'15479125'
p5812
sI5890
S'2237495'
p5813
sI5891
S'7105602'
p5814
sI5892
S'2935456'
p5815
sI5893
S'14980522'
p5816
sI5894
S'8990988'
p5817
sI5895
S'13378410'
p5818
sI5896
S'5414178'
p5819
sI5897
S'1236489'
p5820
sI5898
S'16998702'
p5821
sI5899
S'13136792'
p5822
sI5900
S'15831790'
p5823
sI5901
S'13265459'
p5824
sI5902
S'14871736'
p5825
sI5903
S'10098593'
p5826
sI5904
S'6476242'
p5827
sI5905
S'1616807'
p5828
sI5906
S'6269646'
p5829
sI5907
S'1990201'
p5830
sI5908
S'6149507'
p5831
sI5909
S'8736932'
p5832
sI5910
S'12813206'
p5833
sI5911
S'867721'
p5834
sI5912
S'3662949'
p5835
sI5913
S'9105518'
p5836
sI5914
S'6655786'
p5837
sI5915
S'8473571'
p5838
sI5916
S'10879246'
p5839
sI5917
S'12624830'
p5840
sI5918
S'6489929'
p5841
sI5919
S'2803462'
p5842
sI5920
S'6784171'
p5843
sI5921
S'14021577'
p5844
sI5922
S'14403893'
p5845
sI5923
S'1718287'
p5846
sI5924
S'9593954'
p5847
sI5925
S'629949'
p5848
sI5926
S'15813659'
p5849
sI5927
S'459929'
p5850
sI5928
S'4637146'
p5851
sI5929
S'15340905'
p5852
sI5930
S'3605287'
p5853
sI5931
S'744227'
p5854
sI5932
S'15559330'
p5855
sI5933
S'13436143'
p5856
sI5934
S'16894962'
p5857
sI5935
S'14609804'
p5858
sI5936
S'4308991'
p5859
sI5937
S'6346496'
p5860
sI5938
S'549873'
p5861
sI5939
S'15079215'
p5862
sI5940
S'1732893'
p5863
sI5941
S'4799839'
p5864
sI5942
S'14968074'
p5865
sI5943
S'1239105'
p5866
sI5944
S'11147918'
p5867
sI5945
S'1356710'
p5868
sI5946
S'2391218'
p5869
sI5947
S'5697371'
p5870
sI5948
S'15395736'
p5871
sI5949
S'8869383'
p5872
sI5950
S'14367356'
p5873
sI5951
S'16812019'
p5874
sI5952
S'14317995'
p5875
sI5953
S'13524592'
p5876
sI5954
S'8217454'
p5877
sI5955
S'1013648'
p5878
sI5956
S'12875381'
p5879
sI5957
S'15476065'
p5880
sI5958
S'10032560'
p5881
sI5959
S'12829059'
p5882
sI5960
S'323688'
p5883
sI5961
S'13343870'
p5884
sI5962
S'14163104'
p5885
sI5963
S'9367472'
p5886
sI5964
S'11848146'
p5887
sI5965
S'8167884'
p5888
sI5966
S'3466675'
p5889
sI5967
S'5277117'
p5890
sI5968
S'16000922'
p5891
sI5969
S'6898938'
p5892
sI5970
S'1655291'
p5893
sI5971
S'14570697'
p5894
sI5972
S'14933893'
p5895
sI5973
S'14350747'
p5896
sI5974
S'3835052'
p5897
sI5975
S'16230062'
p5898
sI5976
S'11440252'
p5899
sI5977
S'15115143'
p5900
sI5978
S'16255605'
p5901
sI5979
S'6613154'
p5902
sI5980
S'8292595'
p5903
sI5981
S'3354795'
p5904
sI5982
S'4183664'
p5905
sI5983
S'4245175'
p5906
sI5984
S'6492864'
p5907
sI5985
S'600603'
p5908
sI5986
S'6410814'
p5909
sI5987
S'6292893'
p5910
sI5988
S'12722320'
p5911
sI5989
S'1699934'
p5912
sI5990
S'4469738'
p5913
sI5991
S'12646130'
p5914
sI5992
S'7787962'
p5915
sI5993
S'1471952'
p5916
sI5994
S'1934512'
p5917
sI5995
S'9387120'
p5918
sI5996
S'1036498'
p5919
sI5997
S'3851719'
p5920
sI5998
S'3441729'
p5921
sI5999
S'5699348'
p5922
sI6000
S'6778238'
p5923
sI6001
S'11414531'
p5924
sI6002
S'7651459'
p5925
sI6003
S'6545163'
p5926
sI6004
S'12899453'
p5927
sI6005
S'2115530'
p5928
sI6006
S'31130'
p5929
sI6007
S'681805'
p5930
sI6008
S'7356030'
p5931
sI6009
S'12855469'
p5932
sI6010
S'16476127'
p5933
sI6011
S'5495927'
p5934
sI6012
S'10377156'
p5935
sI6013
S'10771754'
p5936
sI6014
S'1003530'
p5937
sI6015
S'698882'
p5938
sI6016
S'823520'
p5939
sI6017
S'3694643'
p5940
sI6018
S'15037140'
p5941
sI6019
S'13797432'
p5942
sI6020
S'13914961'
p5943
sI6021
S'12207964'
p5944
sI6022
S'13248672'
p5945
sI6023
S'5058683'
p5946
sI6024
S'14672920'
p5947
sI6025
S'13040320'
p5948
sI6026
S'6887405'
p5949
sI6027
S'707396'
p5950
sI6028
S'3292224'
p5951
sI6029
S'12760402'
p5952
sI6030
S'14297224'
p5953
sI6031
S'14566213'
p5954
sI6032
S'9166769'
p5955
sI6033
S'7757549'
p5956
sI6034
S'1243308'
p5957
sI6035
S'10355146'
p5958
sI6036
S'3614680'
p5959
sI6037
S'11346227'
p5960
sI6038
S'9341085'
p5961
sI6039
S'13411560'
p5962
sI6040
S'13222964'
p5963
sI6041
S'12940401'
p5964
sI6042
S'278869'
p5965
sI6043
S'453255'
p5966
sI6044
S'16453240'
p5967
sI6045
S'16908446'
p5968
sI6046
S'2030001'
p5969
sI6047
S'13689162'
p5970
sI6048
S'3075573'
p5971
sI6049
S'62680'
p5972
sI6050
S'10733783'
p5973
sI6051
S'10687056'
p5974
sI6052
S'6939175'
p5975
sI6053
S'2279517'
p5976
sI6054
S'3310042'
p5977
sI6055
S'3591107'
p5978
sI6056
S'165919'
p5979
sI6057
S'4082062'
p5980
sI6058
S'4379307'
p5981
sI6059
S'2576206'
p5982
sI6060
S'15066708'
p5983
sI6061
S'3748474'
p5984
sI6062
S'7456166'
p5985
sI6063
S'16281303'
p5986
sI6064
S'6197119'
p5987
sI6065
S'13378609'
p5988
sI6066
S'15079046'
p5989
sI6067
S'5374901'
p5990
sI6068
S'13279132'
p5991
sI6069
S'3737373'
p5992
sI6070
S'3709013'
p5993
sI6071
S'8474260'
p5994
sI6072
S'13361785'
p5995
sI6073
S'1937226'
p5996
sI6074
S'6064434'
p5997
sI6075
S'5030756'
p5998
sI6076
S'1534238'
p5999
sI6077
S'3637029'
p6000
sI6078
S'10674265'
p6001
sI6079
S'1781611'
p6002
sI6080
S'6170203'
p6003
sI6081
S'16545301'
p6004
sI6082
S'9737171'
p6005
sI6083
S'13656241'
p6006
sI6084
S'3498038'
p6007
sI6085
S'3414653'
p6008
sI6086
S'742795'
p6009
sI6087
S'6334614'
p6010
sI6088
S'6184827'
p6011
sI6089
S'14575253'
p6012
sI6090
S'1167009'
p6013
sI6091
S'4873845'
p6014
sI6092
S'12823377'
p6015
sI6093
S'538012'
p6016
sI6094
S'2544154'
p6017
sI6095
S'6316121'
p6018
sI6096
S'6628546'
p6019
sI6097
S'1023117'
p6020
sI6098
S'2087226'
p6021
sI6099
S'13770179'
p6022
sI6100
S'10613823'
p6023
sI6101
S'7563529'
p6024
sI6102
S'250973'
p6025
sI6103
S'14227845'
p6026
sI6104
S'1046615'
p6027
sI6105
S'15610920'
p6028
sI6106
S'10336325'
p6029
sI6107
S'6391684'
p6030
sI6108
S'9862913'
p6031
sI6109
S'8764617'
p6032
sI6110
S'8772093'
p6033
sI6111
S'4860430'
p6034
sI6112
S'9369127'
p6035
sI6113
S'654232'
p6036
sI6114
S'255650'
p6037
sI6115
S'379326'
p6038
sI6116
S'3943387'
p6039
sI6117
S'6623330'
p6040
sI6118
S'14237397'
p6041
sI6119
S'10881719'
p6042
sI6120
S'10160215'
p6043
sI6121
S'11377330'
p6044
sI6122
S'14362124'
p6045
sI6123
S'9770459'
p6046
sI6124
S'14262767'
p6047
sI6125
S'8971921'
p6048
sI6126
S'15469713'
p6049
sI6127
S'6460353'
p6050
sI6128
S'11784410'
p6051
sI6129
S'15469248'
p6052
sI6130
S'16135347'
p6053
sI6131
S'1373456'
p6054
sI6132
S'12940'
p6055
sI6133
S'15466899'
p6056
sI6134
S'1256909'
p6057
sI6135
S'12286939'
p6058
sI6136
S'6467956'
p6059
sI6137
S'1166538'
p6060
sI6138
S'14124508'
p6061
sI6139
S'15785785'
p6062
sI6140
S'13170825'
p6063
sI6141
S'7303745'
p6064
sI6142
S'666315'
p6065
sI6143
S'11838529'
p6066
sI6144
S'6712618'
p6067
sI6145
S'1182996'
p6068
sI6146
S'9453653'
p6069
sI6147
S'16063218'
p6070
sI6148
S'13528632'
p6071
sI6149
S'8683033'
p6072
sI6150
S'11532023'
p6073
sI6151
S'147057'
p6074
sI6152
S'2582812'
p6075
sI6153
S'15756282'
p6076
sI6154
S'1910171'
p6077
sI6155
S'6780285'
p6078
sI6156
S'6738639'
p6079
sI6157
S'11716103'
p6080
sI6158
S'5326138'
p6081
sI6159
S'901797'
p6082
sI6160
S'9652517'
p6083
sI6161
S'10918885'
p6084
sI6162
S'15888448'
p6085
sI6163
S'2679171'
p6086
sI6164
S'14483178'
p6087
sI6165
S'1654738'
p6088
sI6166
S'13752672'
p6089
sI6167
S'928093'
p6090
sI6168
S'6846464'
p6091
sI6169
S'5559015'
p6092
sI6170
S'198786'
p6093
sI6171
S'10574818'
p6094
sI6172
S'14301088'
p6095
sI6173
S'4454031'
p6096
sI6174
S'13828357'
p6097
sI6175
S'13886756'
p6098
sI6176
S'1956726'
p6099
sI6177
S'5857528'
p6100
sI6178
S'3072242'
p6101
sI6179
S'26362'
p6102
sI6180
S'17209802'
p6103
sI6181
S'2372629'
p6104
sI6182
S'1704210'
p6105
sI6183
S'15548836'
p6106
sI6184
S'15221759'
p6107
sI6185
S'13297765'
p6108
sI6186
S'6277415'
p6109
sI6187
S'9571665'
p6110
sI6188
S'12900750'
p6111
sI6189
S'1194508'
p6112
sI6190
S'14357487'
p6113
sI6191
S'9935949'
p6114
sI6192
S'957642'
p6115
sI6193
S'10190279'
p6116
sI6194
S'15019436'
p6117
sI6195
S'7158408'
p6118
sI6196
S'14527923'
p6119
sI6197
S'7360887'
p6120
sI6198
S'14006625'
p6121
sI6199
S'12320886'
p6122
sI6200
S'8755583'
p6123
sI6201
S'1939106'
p6124
sI6202
S'14111626'
p6125
sI6203
S'3249061'
p6126
sI6204
S'17184804'
p6127
sI6205
S'6960073'
p6128
sI6206
S'4343772'
p6129
sI6207
S'12990134'
p6130
sI6208
S'14466137'
p6131
sI6209
S'4859903'
p6132
sI6210
S'9512594'
p6133
sI6211
S'6357128'
p6134
sI6212
S'13031031'
p6135
sI6213
S'8523953'
p6136
sI6214
S'235281'
p6137
sI6215
S'8794908'
p6138
sI6216
S'10049335'
p6139
sI6217
S'15187281'
p6140
sI6218
S'7201632'
p6141
sI6219
S'6428482'
p6142
sI6220
S'13115998'
p6143
sI6221
S'12074125'
p6144
sI6222
S'11575101'
p6145
sI6223
S'7173864'
p6146
sI6224
S'1975168'
p6147
sI6225
S'5051094'
p6148
sI6226
S'5861766'
p6149
sI6227
S'6767011'
p6150
sI6228
S'552519'
p6151
sI6229
S'1093570'
p6152
sI6230
S'15953573'
p6153
sI6231
S'4143510'
p6154
sI6232
S'7801270'
p6155
sI6233
S'15635630'
p6156
sI6234
S'13814470'
p6157
sI6235
S'14093277'
p6158
sI6236
S'3463385'
p6159
sI6237
S'14826847'
p6160
sI6238
S'11745621'
p6161
sI6239
S'6925777'
p6162
sI6240
S'4288276'
p6163
sI6241
S'686485'
p6164
sI6242
S'16277569'
p6165
sI6243
S'6760090'
p6166
sI6244
S'7111775'
p6167
sI6245
S'1978078'
p6168
sI6246
S'1988544'
p6169
sI6247
S'3921735'
p6170
sI6248
S'12302439'
p6171
sI6249
S'15821383'
p6172
sI6250
S'10903303'
p6173
sI6251
S'2093304'
p6174
sI6252
S'4930683'
p6175
sI6253
S'9313758'
p6176
sI6254
S'8254405'
p6177
sI6255
S'8485651'
p6178
sI6256
S'3790746'
p6179
sI6257
S'15820271'
p6180
sI6258
S'4558483'
p6181
sI6259
S'12533850'
p6182
sI6260
S'2093035'
p6183
sI6261
S'7547481'
p6184
sI6262
S'3710162'
p6185
sI6263
S'13674360'
p6186
sI6264
S'13313377'
p6187
sI6265
S'12370347'
p6188
sI6266
S'2255501'
p6189
sI6267
S'15308517'
p6190
sI6268
S'7915596'
p6191
sI6269
S'403264'
p6192
sI6270
S'8268697'
p6193
sI6271
S'11671236'
p6194
sI6272
S'945009'
p6195
sI6273
S'2683387'
p6196
sI6274
S'10566341'
p6197
sI6275
S'2674784'
p6198
sI6276
S'17016426'
p6199
sI6277
S'14415799'
p6200
sI6278
S'14000455'
p6201
sI6279
S'6478995'
p6202
sI6280
S'14824230'
p6203
sI6281
S'5441'
p6204
sI6282
S'10609274'
p6205
sI6283
S'15974252'
p6206
sI6284
S'7949480'
p6207
sI6285
S'13884267'
p6208
sI6286
S'9502150'
p6209
sI6287
S'3415455'
p6210
sI6288
S'16144586'
p6211
sI6289
S'5925550'
p6212
sI6290
S'1655824'
p6213
sI6291
S'317905'
p6214
sI6292
S'6436950'
p6215
sI6293
S'12450817'
p6216
sI6294
S'1174944'
p6217
sI6295
S'2063239'
p6218
sI6296
S'1969100'
p6219
sI6297
S'8368794'
p6220
sI6298
S'15236476'
p6221
sI6299
S'13743061'
p6222
sI6300
S'7090512'
p6223
sI6301
S'14024262'
p6224
sI6302
S'10516662'
p6225
sI6303
S'13237765'
p6226
sI6304
S'1984892'
p6227
sI6305
S'2056307'
p6228
sI6306
S'14378713'
p6229
sI6307
S'4263802'
p6230
sI6308
S'15927591'
p6231
sI6309
S'13155319'
p6232
sI6310
S'15529962'
p6233
sI6311
S'15927599'
p6234
sI6312
S'7324746'
p6235
sI6313
S'13375627'
p6236
sI6314
S'4993968'
p6237
sI6315
S'5549530'
p6238
sI6316
S'6467744'
p6239
sI6317
S'918239'
p6240
sI6318
S'4649871'
p6241
sI6319
S'12658083'
p6242
sI6320
S'420001'
p6243
sI6321
S'8457294'
p6244
sI6322
S'16543637'
p6245
sI6323
S'7500228'
p6246
sI6324
S'1312178'
p6247
sI6325
S'259443'
p6248
sI6326
S'13490491'
p6249
sI6327
S'14622053'
p6250
sI6328
S'6072842'
p6251
sI6329
S'4378816'
p6252
sI6330
S'31425'
p6253
sI6331
S'12869679'
p6254
sI6332
S'1121804'
p6255
sI6333
S'13686022'
p6256
sI6334
S'975229'
p6257
sI6335
S'10417430'
p6258
sI6336
S'5151917'
p6259
sI6337
S'16164264'
p6260
sI6338
S'6329973'
p6261
sI6339
S'9999878'
p6262
sI6340
S'8615062'
p6263
sI6341
S'16012941'
p6264
sI6342
S'14911619'
p6265
sI6343
S'182721'
p6266
sI6344
S'14670215'
p6267
sI6345
S'11625684'
p6268
sI6346
S'11148869'
p6269
sI6347
S'8776329'
p6270
sI6348
S'4832939'
p6271
sI6349
S'14733932'
p6272
sI6350
S'5557865'
p6273
sI6351
S'2935269'
p6274
sI6352
S'3808288'
p6275
sI6353
S'13173646'
p6276
sI6354
S'10175678'
p6277
sI6355
S'10120476'
p6278
sI6356
S'8869998'
p6279
sI6357
S'11801018'
p6280
sI6358
S'17106903'
p6281
sI6359
S'2194263'
p6282
sI6360
S'3177630'
p6283
sI6361
S'8125640'
p6284
sI6362
S'5275949'
p6285
sI6363
S'14842991'
p6286
sI6364
S'15925992'
p6287
sI6365
S'7780850'
p6288
sI6366
S'1594071'
p6289
sI6367
S'12671106'
p6290
sI6368
S'12432739'
p6291
sI6369
S'6462046'
p6292
sI6370
S'801260'
p6293
sI6371
S'15021791'
p6294
sI6372
S'559511'
p6295
sI6373
S'4050765'
p6296
sI6374
S'1171674'
p6297
sI6375
S'15067459'
p6298
sI6376
S'5798177'
p6299
sI6377
S'6315659'
p6300
sI6378
S'3531850'
p6301
sI6379
S'1228561'
p6302
sI6380
S'8588621'
p6303
sI6381
S'8307479'
p6304
sI6382
S'678515'
p6305
sI6383
S'10281054'
p6306
sI6384
S'8521692'
p6307
sI6385
S'1290336'
p6308
sI6386
S'15342457'
p6309
sI6387
S'60666'
p6310
sI6388
S'14993384'
p6311
sI6389
S'8321495'
p6312
sI6390
S'4952989'
p6313
sI6391
S'3469295'
p6314
sI6392
S'14272980'
p6315
sI6393
S'8883269'
p6316
sI6394
S'7384393'
p6317
sI6395
S'9509148'
p6318
sI6396
S'3430103'
p6319
sI6397
S'14375366'
p6320
sI6398
S'13100277'
p6321
sI6399
S'9393966'
p6322
sI6400
S'11818137'
p6323
sI6401
S'4195712'
p6324
sI6402
S'12751856'
p6325
sI6403
S'4753639'
p6326
sI6404
S'4069228'
p6327
sI6405
S'3946177'
p6328
sI6406
S'15830345'
p6329
sI6407
S'3624653'
p6330
sI6408
S'5917981'
p6331
sI6409
S'1646541'
p6332
sI6410
S'6501271'
p6333
sI6411
S'4481694'
p6334
sI6412
S'7402608'
p6335
sI6413
S'5856685'
p6336
sI6414
S'8031823'
p6337
sI6415
S'3519489'
p6338
sI6416
S'940046'
p6339
sI6417
S'59121'
p6340
sI6418
S'8653603'
p6341
sI6419
S'695465'
p6342
sI6420
S'10000470'
p6343
sI6421
S'14531958'
p6344
sI6422
S'9364096'
p6345
sI6423
S'971233'
p6346
sI6424
S'195989'
p6347
sI6425
S'14554847'
p6348
sI6426
S'13687101'
p6349
sI6427
S'5106252'
p6350
sI6428
S'10707042'
p6351
sI6429
S'1213991'
p6352
sI6430
S'7363337'
p6353
sI6431
S'2465123'
p6354
sI6432
S'16015410'
p6355
sI6433
S'4434204'
p6356
sI6434
S'8194457'
p6357
sI6435
S'15078615'
p6358
sI6436
S'10747156'
p6359
sI6437
S'6990'
p6360
sI6438
S'1862436'
p6361
sI6439
S'9596708'
p6362
sI6440
S'9138932'
p6363
sI6441
S'5318616'
p6364
sI6442
S'15821659'
p6365
sI6443
S'6355217'
p6366
sI6444
S'9642268'
p6367
sI6445
S'15928774'
p6368
sI6446
S'1905918'
p6369
sI6447
S'5447255'
p6370
sI6448
S'907966'
p6371
sI6449
S'7002884'
p6372
sI6450
S'13362486'
p6373
sI6451
S'319724'
p6374
sI6452
S'15924565'
p6375
sI6453
S'464116'
p6376
sI6454
S'713538'
p6377
sI6455
S'1824808'
p6378
sI6456
S'15141988'
p6379
sI6457
S'2874932'
p6380
sI6458
S'16636519'
p6381
sI6459
S'16018094'
p6382
sI6460
S'3411815'
p6383
sI6461
S'14601273'
p6384
sI6462
S'14521332'
p6385
sI6463
S'3825437'
p6386
sI6464
S'8623370'
p6387
sI6465
S'5447434'
p6388
sI6466
S'1724731'
p6389
sI6467
S'640691'
p6390
sI6468
S'6269608'
p6391
sI6469
S'13281582'
p6392
sI6470
S'4210004'
p6393
sI6471
S'10155003'
p6394
sI6472
S'6761248'
p6395
sI6473
S'15326243'
p6396
sI6474
S'14401928'
p6397
sI6475
S'11567121'
p6398
sI6476
S'287408'
p6399
sI6477
S'7535342'
p6400
sI6478
S'2309289'
p6401
sI6479
S'16016486'
p6402
sI6480
S'12738790'
p6403
sI6481
S'9755074'
p6404
sI6482
S'1691798'
p6405
sI6483
S'13044589'
p6406
sI6484
S'3755474'
p6407
sI6485
S'5115372'
p6408
sI6486
S'8103342'
p6409
sI6487
S'15068067'
p6410
sI6488
S'10171782'
p6411
sI6489
S'14403588'
p6412
sI6490
S'15544377'
p6413
sI6491
S'13247203'
p6414
sI6492
S'5863567'
p6415
sI6493
S'2933406'
p6416
sI6494
S'4252539'
p6417
sI6495
S'11086720'
p6418
sI6496
S'4855814'
p6419
sI6497
S'4967272'
p6420
sI6498
S'8935041'
p6421
sI6499
S'4278476'
p6422
sI6500
S'4956896'
p6423
sI6501
S'13815447'
p6424
sI6502
S'9355498'
p6425
sI6503
S'14374179'
p6426
sI6504
S'683743'
p6427
sI6505
S'4294189'
p6428
sI6506
S'17078612'
p6429
sI6507
S'8100475'
p6430
sI6508
S'16710016'
p6431
sI6509
S'15758553'
p6432
sI6510
S'8565548'
p6433
sI6511
S'11755946'
p6434
sI6512
S'15228511'
p6435
sI6513
S'4880465'
p6436
sI6514
S'10342806'
p6437
sI6515
S'7384633'
p6438
sI6516
S'6451892'
p6439
sI6517
S'12655523'
p6440
sI6518
S'10673957'
p6441
sI6519
S'12231254'
p6442
sI6520
S'98724'
p6443
sI6521
S'1091534'
p6444
sI6522
S'15289988'
p6445
sI6523
S'12412900'
p6446
sI6524
S'1702533'
p6447
sI6525
S'12232639'
p6448
sI6526
S'15376265'
p6449
sI6527
S'80493'
p6450
sI6528
S'6408849'
p6451
sI6529
S'8079894'
p6452
sI6530
S'8966386'
p6453
sI6531
S'10120596'
p6454
sI6532
S'11207036'
p6455
sI6533
S'8535125'
p6456
sI6534
S'15510959'
p6457
sI6535
S'8327891'
p6458
sI6536
S'13951702'
p6459
sI6537
S'9967141'
p6460
sI6538
S'15911064'
p6461
sI6539
S'1185060'
p6462
sI6540
S'5560055'
p6463
sI6541
S'1906717'
p6464
sI6542
S'4799879'
p6465
sI6543
S'9496213'
p6466
sI6544
S'15274681'
p6467
sI6545
S'7094539'
p6468
sI6546
S'5893612'
p6469
sI6547
S'8427028'
p6470
sI6548
S'9236302'
p6471
sI6549
S'9062286'
p6472
sI6550
S'16177970'
p6473
sI6551
S'10251082'
p6474
sI6552
S'255024'
p6475
sI6553
S'6793249'
p6476
sI6554
S'12928437'
p6477
sI6555
S'134224'
p6478
sI6556
S'11138910'
p6479
sI6557
S'5761032'
p6480
sI6558
S'1347847'
p6481
sI6559
S'9231791'
p6482
sI6560
S'1005416'
p6483
sI6561
S'13674349'
p6484
sI6562
S'9824042'
p6485
sI6563
S'15447148'
p6486
sI6564
S'10811679'
p6487
sI6565
S'14652961'
p6488
sI6566
S'14965978'
p6489
sI6567
S'3489036'
p6490
sI6568
S'14178226'
p6491
sI6569
S'14069903'
p6492
sI6570
S'3495854'
p6493
sI6571
S'11085577'
p6494
sI6572
S'70216'
p6495
sI6573
S'380730'
p6496
sI6574
S'317662'
p6497
sI6575
S'2757036'
p6498
sI6576
S'14014150'
p6499
sI6577
S'13697587'
p6500
sI6578
S'4308798'
p6501
sI6579
S'16426121'
p6502
sI6580
S'9645073'
p6503
sI6581
S'3104839'
p6504
sI6582
S'1260311'
p6505
sI6583
S'13926054'
p6506
sI6584
S'282977'
p6507
sI6585
S'13307480'
p6508
sI6586
S'14202967'
p6509
sI6587
S'7638571'
p6510
sI6588
S'7834712'
p6511
sI6589
S'10192197'
p6512
sI6590
S'14523379'
p6513
sI6591
S'2603870'
p6514
sI6592
S'9992903'
p6515
sI6593
S'2165795'
p6516
sI6594
S'13378820'
p6517
sI6595
S'7382982'
p6518
sI6596
S'2163379'
p6519
sI6597
S'6467509'
p6520
sI6598
S'15676608'
p6521
sI6599
S'7746889'
p6522
sI6600
S'28396'
p6523
sI6601
S'1439162'
p6524
sI6602
S'14755168'
p6525
sI6603
S'13355012'
p6526
sI6604
S'8654029'
p6527
sI6605
S'8488273'
p6528
sI6606
S'12469563'
p6529
sI6607
S'16396736'
p6530
sI6608
S'7983560'
p6531
sI6609
S'6378804'
p6532
sI6610
S'13866463'
p6533
sI6611
S'14892623'
p6534
sI6612
S'2495505'
p6535
sI6613
S'6575873'
p6536
sI6614
S'14185610'
p6537
sI6615
S'12601058'
p6538
sI6616
S'7247357'
p6539
sI6617
S'14246351'
p6540
sI6618
S'15632470'
p6541
sI6619
S'6543953'
p6542
sI6620
S'6751450'
p6543
sI6621
S'10368714'
p6544
sI6622
S'229874'
p6545
sI6623
S'4966041'
p6546
sI6624
S'15409136'
p6547
sI6625
S'456336'
p6548
sI6626
S'4516766'
p6549
sI6627
S'16826769'
p6550
sI6628
S'11378564'
p6551
sI6629
S'16489186'
p6552
sI6630
S'14716281'
p6553
sI6631
S'14918202'
p6554
sI6632
S'10386936'
p6555
sI6633
S'4774041'
p6556
sI6634
S'8616102'
p6557
sI6635
S'13396944'
p6558
sI6636
S'14634162'
p6559
sI6637
S'8454886'
p6560
sI6638
S'15507632'
p6561
sI6639
S'414553'
p6562
sI6640
S'6012187'
p6563
sI6641
S'8369277'
p6564
sI6642
S'15611453'
p6565
sI6643
S'11572398'
p6566
sI6644
S'7985537'
p6567
sI6645
S'13300633'
p6568
sI6646
S'15600428'
p6569
sI6647
S'424767'
p6570
sI6648
S'165461'
p6571
sI6649
S'1971540'
p6572
sI6650
S'9787634'
p6573
sI6651
S'5561046'
p6574
sI6652
S'4942200'
p6575
sI6653
S'4037379'
p6576
sI6654
S'10812612'
p6577
sI6655
S'754190'
p6578
sI6656
S'11396922'
p6579
sI6657
S'9219724'
p6580
sI6658
S'13979519'
p6581
sI6659
S'3499251'
p6582
sI6660
S'9857249'
p6583
sI6661
S'923053'
p6584
sI6662
S'4378437'
p6585
sI6663
S'15436764'
p6586
sI6664
S'6121290'
p6587
sI6665
S'854736'
p6588
sI6666
S'1364746'
p6589
sI6667
S'6536719'
p6590
sI6668
S'995367'
p6591
sI6669
S'11325022'
p6592
sI6670
S'1654444'
p6593
sI6671
S'1391683'
p6594
sI6672
S'9362280'
p6595
sI6673
S'16216234'
p6596
sI6674
S'4209503'
p6597
sI6675
S'16767053'
p6598
sI6676
S'14637123'
p6599
sI6677
S'15732413'
p6600
sI6678
S'15271865'
p6601
sI6679
S'3907603'
p6602
sI6680
S'4250093'
p6603
sI6681
S'890855'
p6604
sI6682
S'246351'
p6605
sI6683
S'10086885'
p6606
sI6684
S'4440751'
p6607
sI6685
S'7590712'
p6608
sI6686
S'709853'
p6609
sI6687
S'2531865'
p6610
sI6688
S'13083020'
p6611
sI6689
S'60680'
p6612
sI6690
S'6570770'
p6613
sI6691
S'2644539'
p6614
sI6692
S'1137270'
p6615
sI6693
S'13163645'
p6616
sI6694
S'5655763'
p6617
sI6695
S'10831830'
p6618
sI6696
S'9764969'
p6619
sI6697
S'4288483'
p6620
sI6698
S'15253135'
p6621
sI6699
S'300140'
p6622
sI6700
S'11207379'
p6623
sI6701
S'1267945'
p6624
sI6702
S'6586663'
p6625
sI6703
S'14712508'
p6626
sI6704
S'7488402'
p6627
sI6705
S'10038410'
p6628
sI6706
S'9975846'
p6629
sI6707
S'7764285'
p6630
sI6708
S'12703904'
p6631
sI6709
S'14756023'
p6632
sI6710
S'9316287'
p6633
sI6711
S'236671'
p6634
sI6712
S'6198730'
p6635
sI6713
S'6638042'
p6636
sI6714
S'15685669'
p6637
sI6715
S'14855080'
p6638
sI6716
S'7019122'
p6639
sI6717
S'2113934'
p6640
sI6718
S'14595984'
p6641
sI6719
S'4126394'
p6642
sI6720
S'2017295'
p6643
sI6721
S'7036'
p6644
sI6722
S'15733921'
p6645
sI6723
S'9364071'
p6646
sI6724
S'12651014'
p6647
sI6725
S'9807955'
p6648
sI6726
S'1187588'
p6649
sI6727
S'12546870'
p6650
sI6728
S'4660633'
p6651
sI6729
S'6078788'
p6652
sI6730
S'1613859'
p6653
sI6731
S'12915074'
p6654
sI6732
S'16026205'
p6655
sI6733
S'9310939'
p6656
sI6734
S'319798'
p6657
sI6735
S'16965972'
p6658
sI6736
S'14373756'
p6659
sI6737
S'212109'
p6660
sI6738
S'2087889'
p6661
sI6739
S'4472978'
p6662
sI6740
S'9773852'
p6663
sI6741
S'9031172'
p6664
sI6742
S'4311233'
p6665
sI6743
S'9349010'
p6666
sI6744
S'13027365'
p6667
sI6745
S'13936824'
p6668
sI6746
S'8703888'
p6669
sI6747
S'12883073'
p6670
sI6748
S'6761483'
p6671
sI6749
S'8816022'
p6672
sI6750
S'10166820'
p6673
sI6751
S'8770660'
p6674
sI6752
S'908469'
p6675
sI6753
S'11456592'
p6676
sI6754
S'941625'
p6677
sI6755
S'11431526'
p6678
sI6756
S'9623722'
p6679
sI6757
S'14843394'
p6680
sI6758
S'15465050'
p6681
sI6759
S'15551590'
p6682
sI6760
S'8629731'
p6683
sI6761
S'2612572'
p6684
sI6762
S'15446933'
p6685
sI6763
S'9907307'
p6686
sI6764
S'3392520'
p6687
sI6765
S'6941644'
p6688
sI6766
S'1953461'
p6689
sI6767
S'6001852'
p6690
sI6768
S'5028135'
p6691
sI6769
S'6733842'
p6692
sI6770
S'8064530'
p6693
sI6771
S'12110383'
p6694
sI6772
S'8683432'
p6695
sI6773
S'11478813'
p6696
sI6774
S'6977204'
p6697
sI6775
S'3331656'
p6698
sI6776
S'9693080'
p6699
sI6777
S'4317188'
p6700
sI6778
S'4935544'
p6701
sI6779
S'812671'
p6702
sI6780
S'11865950'
p6703
sI6781
S'4691130'
p6704
sI6782
S'783533'
p6705
sI6783
S'11756047'
p6706
sI6784
S'10072678'
p6707
sI6785
S'2231564'
p6708
sI6786
S'1034911'
p6709
sI6787
S'5715049'
p6710
sI6788
S'9341252'
p6711
sI6789
S'4387234'
p6712
sI6790
S'14404240'
p6713
sI6791
S'15955926'
p6714
sI6792
S'43957'
p6715
sI6793
S'649903'
p6716
sI6794
S'4649331'
p6717
sI6795
S'15766457'
p6718
sI6796
S'16354659'
p6719
sI6797
S'16323227'
p6720
sI6798
S'14301951'
p6721
sI6799
S'7698642'
p6722
sI6800
S'10561603'
p6723
sI6801
S'630186'
p6724
sI6802
S'802983'
p6725
sI6803
S'10729692'
p6726
sI6804
S'7047076'
p6727
sI6805
S'4759680'
p6728
sI6806
S'568661'
p6729
sI6807
S'11641041'
p6730
sI6808
S'15292103'
p6731
sI6809
S'2585936'
p6732
sI6810
S'14086770'
p6733
sI6811
S'1306570'
p6734
sI6812
S'4393628'
p6735
sI6813
S'12795290'
p6736
sI6814
S'335797'
p6737
sI6815
S'13380'
p6738
sI6816
S'6356569'
p6739
sI6817
S'6386141'
p6740
sI6818
S'1032611'
p6741
sI6819
S'6322937'
p6742
sI6820
S'11432120'
p6743
sI6821
S'4837865'
p6744
sI6822
S'1525345'
p6745
sI6823
S'2079540'
p6746
sI6824
S'11574674'
p6747
sI6825
S'15634670'
p6748
sI6826
S'13922353'
p6749
sI6827
S'2119216'
p6750
sI6828
S'13620232'
p6751
sI6829
S'15358881'
p6752
sI6830
S'15543965'
p6753
sI6831
S'9066389'
p6754
sI6832
S'16086666'
p6755
sI6833
S'9958322'
p6756
sI6834
S'14650859'
p6757
sI6835
S'3066191'
p6758
sI6836
S'9048374'
p6759
sI6837
S'15868993'
p6760
sI6838
S'9146612'
p6761
sI6839
S'818325'
p6762
sI6840
S'16871240'
p6763
sI6841
S'11949712'
p6764
sI6842
S'15153665'
p6765
sI6843
S'13716766'
p6766
sI6844
S'10280549'
p6767
sI6845
S'3718713'
p6768
sI6846
S'808802'
p6769
sI6847
S'1239293'
p6770
sI6848
S'5571405'
p6771
sI6849
S'13397762'
p6772
sI6850
S'9862872'
p6773
sI6851
S'6833049'
p6774
sI6852
S'7696314'
p6775
sI6853
S'6461789'
p6776
sI6854
S'16039948'
p6777
sI6855
S'13098373'
p6778
sI6856
S'4308779'
p6779
sI6857
S'1856914'
p6780
sI6858
S'13353399'
p6781
sI6859
S'17296025'
p6782
sI6860
S'15337463'
p6783
sI6861
S'8814304'
p6784
sI6862
S'8864229'
p6785
sI6863
S'12408517'
p6786
sI6864
S'16725576'
p6787
sI6865
S'13309588'
p6788
sI6866
S'12103325'
p6789
sI6867
S'7048398'
p6790
sI6868
S'13655368'
p6791
sI6869
S'236949'
p6792
sI6870
S'8496897'
p6793
sI6871
S'15954639'
p6794
sI6872
S'48719'
p6795
sI6873
S'5567278'
p6796
sI6874
S'8301289'
p6797
sI6875
S'1084130'
p6798
sI6876
S'785366'
p6799
sI6877
S'15191179'
p6800
sI6878
S'3583482'
p6801
sI6879
S'275443'
p6802
sI6880
S'525388'
p6803
sI6881
S'747538'
p6804
sI6882
S'6764999'
p6805
sI6883
S'15193443'
p6806
sI6884
S'14826530'
p6807
sI6885
S'14951761'
p6808
sI6886
S'12088314'
p6809
sI6887
S'72190'
p6810
sI6888
S'630141'
p6811
sI6889
S'11993790'
p6812
sI6890
S'14236416'
p6813
sI6891
S'9279049'
p6814
sI6892
S'3377420'
p6815
sI6893
S'855579'
p6816
sI6894
S'3324203'
p6817
sI6895
S'3262760'
p6818
sI6896
S'15423962'
p6819
sI6897
S'13315967'
p6820
sI6898
S'4309648'
p6821
sI6899
S'10056170'
p6822
sI6900
S'7038604'
p6823
sI6901
S'13886618'
p6824
sI6902
S'95883'
p6825
sI6903
S'8224368'
p6826
sI6904
S'1499650'
p6827
sI6905
S'14445183'
p6828
sI6906
S'13396969'
p6829
sI6907
S'12133132'
p6830
sI6908
S'2095959'
p6831
sI6909
S'11672600'
p6832
sI6910
S'3701476'
p6833
sI6911
S'1145134'
p6834
sI6912
S'10837866'
p6835
sI6913
S'9473646'
p6836
sI6914
S'3248526'
p6837
sI6915
S'17210044'
p6838
sI6916
S'4270499'
p6839
sI6917
S'10676959'
p6840
sI6918
S'7132891'
p6841
sI6919
S'8425148'
p6842
sI6920
S'2502518'
p6843
sI6921
S'3499016'
p6844
sI6922
S'353801'
p6845
sI6923
S'784169'
p6846
sI6924
S'241588'
p6847
sI6925
S'8423666'
p6848
sI6926
S'3431816'
p6849
sI6927
S'12926849'
p6850
sI6928
S'13348000'
p6851
sI6929
S'14417576'
p6852
sI6930
S'16859979'
p6853
sI6931
S'12945400'
p6854
sI6932
S'7021851'
p6855
sI6933
S'6716218'
p6856
sI6934
S'842973'
p6857
sI6935
S'51778'
p6858
sI6936
S'7602158'
p6859
sI6937
S'683024'
p6860
sI6938
S'9369116'
p6861
sI6939
S'442636'
p6862
sI6940
S'3250448'
p6863
sI6941
S'12936207'
p6864
sI6942
S'4936023'
p6865
sI6943
S'5418807'
p6866
sI6944
S'1825949'
p6867
sI6945
S'14499172'
p6868
sI6946
S'7805188'
p6869
sI6947
S'2236458'
p6870
sI6948
S'10838084'
p6871
sI6949
S'3548133'
p6872
sI6950
S'9786969'
p6873
sI6951
S'9394266'
p6874
sI6952
S'2338082'
p6875
sI6953
S'8071687'
p6876
sI6954
S'16147631'
p6877
sI6955
S'7969174'
p6878
sI6956
S'4235983'
p6879
sI6957
S'8801963'
p6880
sI6958
S'2440173'
p6881
sI6959
S'12594614'
p6882
sI6960
S'7073436'
p6883
sI6961
S'15086994'
p6884
sI6962
S'1039984'
p6885
sI6963
S'4598265'
p6886
sI6964
S'13840935'
p6887
sI6965
S'16157164'
p6888
sI6966
S'2569108'
p6889
sI6967
S'6819865'
p6890
sI6968
S'4559338'
p6891
sI6969
S'194236'
p6892
sI6970
S'3241858'
p6893
sI6971
S'9824807'
p6894
sI6972
S'13757434'
p6895
sI6973
S'5315955'
p6896
sI6974
S'14253667'
p6897
sI6975
S'7708148'
p6898
sI6976
S'15451158'
p6899
sI6977
S'175069'
p6900
sI6978
S'8257999'
p6901
sI6979
S'14840464'
p6902
sI6980
S'11157167'
p6903
sI6981
S'9153627'
p6904
sI6982
S'6972163'
p6905
sI6983
S'5106749'
p6906
sI6984
S'1581466'
p6907
sI6985
S'3835757'
p6908
sI6986
S'16225437'
p6909
sI6987
S'15009751'
p6910
sI6988
S'5106214'
p6911
sI6989
S'16162933'
p6912
sI6990
S'4015422'
p6913
sI6991
S'10167860'
p6914
sI6992
S'7664991'
p6915
sI6993
S'15483812'
p6916
sI6994
S'6436292'
p6917
sI6995
S'289958'
p6918
sI6996
S'13980673'
p6919
sI6997
S'2318184'
p6920
sI6998
S'13044634'
p6921
sI6999
S'5822382'
p6922
sI7000
S'13026893'
p6923
sI7001
S'1151388'
p6924
sI7002
S'12286191'
p6925
sI7003
S'4867042'
p6926
sI7004
S'14388173'
p6927
sI7005
S'7329781'
p6928
sI7006
S'6846227'
p6929
sI7007
S'10540383'
p6930
sI7008
S'2407447'
p6931
sI7009
S'16533105'
p6932
sI7010
S'5082455'
p6933
sI7011
S'15054025'
p6934
sI7012
S'8388457'
p6935
sI7013
S'1365597'
p6936
sI7014
S'716052'
p6937
sI7015
S'6467319'
p6938
sI7016
S'457829'
p6939
sI7017
S'14028430'
p6940
sI7018
S'849574'
p6941
sI7019
S'11827451'
p6942
sI7020
S'13786155'
p6943
sI7021
S'15600320'
p6944
sI7022
S'14168236'
p6945
sI7023
S'3457822'
p6946
sI7024
S'14028380'
p6947
sI7025
S'6520814'
p6948
sI7026
S'9464318'
p6949
sI7027
S'3715638'
p6950
sI7028
S'3971534'
p6951
sI7029
S'2082328'
p6952
sI7030
S'13881212'
p6953
sI7031
S'16008519'
p6954
sI7032
S'3521124'
p6955
sI7033
S'8420870'
p6956
sI7034
S'16412250'
p6957
sI7035
S'9371009'
p6958
sI7036
S'14105220'
p6959
sI7037
S'1935502'
p6960
sI7038
S'3529503'
p6961
sI7039
S'1745575'
p6962
sI7040
S'16491214'
p6963
sI7041
S'3529500'
p6964
sI7042
S'3694498'
p6965
sI7043
S'15951107'
p6966
sI7044
S'14662959'
p6967
sI7045
S'3757461'
p6968
sI7046
S'4082635'
p6969
sI7047
S'15517665'
p6970
sI7048
S'12833497'
p6971
sI7049
S'16589315'
p6972
sI7050
S'10355806'
p6973
sI7051
S'10449728'
p6974
sI7052
S'9862199'
p6975
sI7053
S'498052'
p6976
sI7054
S'13634644'
p6977
sI7055
S'8212051'
p6978
sI7056
S'3157747'
p6979
sI7057
S'15930916'
p6980
sI7058
S'13140302'
p6981
sI7059
S'2285444'
p6982
sI7060
S'9670233'
p6983
sI7061
S'12493291'
p6984
sI7062
S'7966929'
p6985
sI7063
S'133025'
p6986
sI7064
S'763833'
p6987
sI7065
S'4774924'
p6988
sI7066
S'15189306'
p6989
sI7067
S'12627567'
p6990
sI7068
S'9487497'
p6991
sI7069
S'6451855'
p6992
sI7070
S'3039186'
p6993
sI7071
S'11101754'
p6994
sI7072
S'128975'
p6995
sI7073
S'10368055'
p6996
sI7074
S'8014298'
p6997
sI7075
S'9972046'
p6998
sI7076
S'16230962'
p6999
sI7077
S'5112311'
p7000
sI7078
S'9712126'
p7001
sI7079
S'9004664'
p7002
sI7080
S'1180474'
p7003
sI7081
S'7094866'
p7004
sI7082
S'4604408'
p7005
sI7083
S'9557990'
p7006
sI7084
S'6585852'
p7007
sI7085
S'5021777'
p7008
sI7086
S'2305890'
p7009
sI7087
S'829083'
p7010
sI7088
S'13676889'
p7011
sI7089
S'8440383'
p7012
sI7090
S'4853365'
p7013
sI7091
S'3619399'
p7014
sI7092
S'9435462'
p7015
sI7093
S'8107424'
p7016
sI7094
S'2139828'
p7017
sI7095
S'12417189'
p7018
sI7096
S'10886453'
p7019
sI7097
S'14857830'
p7020
sI7098
S'7901715'
p7021
sI7099
S'17157615'
p7022
sI7100
S'975897'
p7023
sI7101
S'13497388'
p7024
sI7102
S'6181957'
p7025
sI7103
S'13078388'
p7026
sI7104
S'12338559'
p7027
sI7105
S'8829097'
p7028
sI7106
S'13153768'
p7029
sI7107
S'5173018'
p7030
sI7108
S'4455094'
p7031
sI7109
S'9940300'
p7032
sI7110
S'10756521'
p7033
sI7111
S'9170129'
p7034
sI7112
S'775326'
p7035
sI7113
S'14799088'
p7036
sI7114
S'1814010'
p7037
sI7115
S'3403034'
p7038
sI7116
S'14842489'
p7039
sI7117
S'12070989'
p7040
sI7118
S'13279943'
p7041
sI7119
S'8847200'
p7042
sI7120
S'6966329'
p7043
sI7121
S'470709'
p7044
sI7122
S'14033731'
p7045
sI7123
S'9315295'
p7046
sI7124
S'16337110'
p7047
sI7125
S'364275'
p7048
sI7126
S'4168660'
p7049
sI7127
S'12166897'
p7050
sI7128
S'1091840'
p7051
sI7129
S'13881020'
p7052
sI7130
S'6660518'
p7053
sI7131
S'4144849'
p7054
sI7132
S'15334973'
p7055
sI7133
S'13510154'
p7056
sI7134
S'13347498'
p7057
sI7135
S'12547051'
p7058
sI7136
S'2744106'
p7059
sI7137
S'2896760'
p7060
sI7138
S'15266670'
p7061
sI7139
S'1614817'
p7062
sI7140
S'242643'
p7063
sI7141
S'7675994'
p7064
sI7142
S'2560624'
p7065
sI7143
S'7903721'
p7066
sI7144
S'11991426'
p7067
sI7145
S'9916371'
p7068
sI7146
S'3973872'
p7069
sI7147
S'14714527'
p7070
sI7148
S'12275281'
p7071
sI7149
S'2695469'
p7072
sI7150
S'14054705'
p7073
sI7151
S'13232917'
p7074
sI7152
S'1687108'
p7075
sI7153
S'15774166'
p7076
sI7154
S'11924694'
p7077
sI7155
S'13682479'
p7078
sI7156
S'14055238'
p7079
sI7157
S'12053021'
p7080
sI7158
S'6474867'
p7081
sI7159
S'4074344'
p7082
sI7160
S'13698789'
p7083
sI7161
S'3684302'
p7084
sI7162
S'11904610'
p7085
sI7163
S'3981241'
p7086
sI7164
S'6303845'
p7087
sI7165
S'3218526'
p7088
sI7166
S'14444030'
p7089
sI7167
S'13654127'
p7090
sI7168
S'4764120'
p7091
sI7169
S'4083049'
p7092
sI7170
S'752783'
p7093
sI7171
S'13514387'
p7094
sI7172
S'5422535'
p7095
sI7173
S'7303995'
p7096
sI7174
S'9652925'
p7097
sI7175
S'7532533'
p7098
sI7176
S'14426371'
p7099
sI7177
S'10545815'
p7100
sI7178
S'6555427'
p7101
sI7179
S'131757'
p7102
sI7180
S'9026479'
p7103
sI7181
S'9219893'
p7104
sI7182
S'3360707'
p7105
sI7183
S'2153435'
p7106
sI7184
S'16063135'
p7107
sI7185
S'265036'
p7108
sI7186
S'15844782'
p7109
sI7187
S'10435862'
p7110
sI7188
S'10994152'
p7111
sI7189
S'776594'
p7112
sI7190
S'6425751'
p7113
sI7191
S'87987'
p7114
sI7192
S'16242912'
p7115
sI7193
S'14406256'
p7116
sI7194
S'6662112'
p7117
sI7195
S'13138630'
p7118
sI7196
S'15437290'
p7119
sI7197
S'9976839'
p7120
sI7198
S'7866421'
p7121
sI7199
S'4218067'
p7122
sI7200
S'796217'
p7123
sI7201
S'15098387'
p7124
sI7202
S'4680566'
p7125
sI7203
S'8151782'
p7126
sI7204
S'8782984'
p7127
sI7205
S'7378773'
p7128
sI7206
S'14801700'
p7129
sI7207
S'9289159'
p7130
sI7208
S'13563764'
p7131
sI7209
S'14150184'
p7132
sI7210
S'2936517'
p7133
sI7211
S'4602440'
p7134
sI7212
S'5748301'
p7135
sI7213
S'968921'
p7136
sI7214
S'1582940'
p7137
sI7215
S'6130778'
p7138
sI7216
S'12834572'
p7139
sI7217
S'14133414'
p7140
sI7218
S'13102409'
p7141
sI7219
S'3563047'
p7142
sI7220
S'15067346'
p7143
sI7221
S'3563041'
p7144
sI7222
S'13965739'
p7145
sI7223
S'9429038'
p7146
sI7224
S'13334946'
p7147
sI7225
S'12736900'
p7148
sI7226
S'148259'
p7149
sI7227
S'6822457'
p7150
sI7228
S'1983466'
p7151
sI7229
S'4509357'
p7152
sI7230
S'10629713'
p7153
sI7231
S'8904488'
p7154
sI7232
S'467634'
p7155
sI7233
S'485197'
p7156
sI7234
S'13114019'
p7157
sI7235
S'3549535'
p7158
sI7236
S'140237'
p7159
sI7237
S'9611372'
p7160
sI7238
S'12984386'
p7161
sI7239
S'5990045'
p7162
sI7240
S'6796474'
p7163
sI7241
S'12339838'
p7164
sI7242
S'13863176'
p7165
sI7243
S'5935275'
p7166
sI7244
S'3041280'
p7167
sI7245
S'13593039'
p7168
sI7246
S'42729'
p7169
sI7247
S'16555010'
p7170
sI7248
S'11904191'
p7171
sI7249
S'13784393'
p7172
sI7250
S'295231'
p7173
sI7251
S'1521318'
p7174
sI7252
S'3284230'
p7175
sI7253
S'671765'
p7176
sI7254
S'791452'
p7177
sI7255
S'7760406'
p7178
sI7256
S'1821973'
p7179
sI7257
S'15039238'
p7180
sI7258
S'15552862'
p7181
sI7259
S'13332816'
p7182
sI7260
S'8878230'
p7183
sI7261
S'16175740'
p7184
sI7262
S'13669391'
p7185
sI7263
S'12153677'
p7186
sI7264
S'1132907'
p7187
sI7265
S'63373'
p7188
sI7266
S'15128365'
p7189
sI7267
S'12970866'
p7190
sI7268
S'4098642'
p7191
sI7269
S'13652411'
p7192
sI7270
S'13328523'
p7193
sI7271
S'7842276'
p7194
sI7272
S'4881017'
p7195
sI7273
S'3720986'
p7196
sI7274
S'716949'
p7197
sI7275
S'9393127'
p7198
sI7276
S'10854593'
p7199
sI7277
S'14694'
p7200
sI7278
S'14720550'
p7201
sI7279
S'3504289'
p7202
sI7280
S'4564695'
p7203
sI7281
S'58729'
p7204
sI7282
S'15397275'
p7205
sI7283
S'10515893'
p7206
sI7284
S'6848862'
p7207
sI7285
S'3447964'
p7208
sI7286
S'2471108'
p7209
sI7287
S'15985491'
p7210
sI7288
S'6561328'
p7211
sI7289
S'1639762'
p7212
sI7290
S'14066975'
p7213
sI7291
S'699472'
p7214
sI7292
S'8409785'
p7215
sI7293
S'16424934'
p7216
sI7294
S'15314054'
p7217
sI7295
S'11753199'
p7218
sI7296
S'10538353'
p7219
sI7297
S'5102006'
p7220
sI7298
S'867220'
p7221
sI7299
S'7731215'
p7222
sI7300
S'1905865'
p7223
sI7301
S'1669250'
p7224
sI7302
S'16014708'
p7225
sI7303
S'17249755'
p7226
sI7304
S'3557570'
p7227
sI7305
S'228517'
p7228
sI7306
S'1022204'
p7229
sI7307
S'8868954'
p7230
sI7308
S'8867271'
p7231
sI7309
S'1439028'
p7232
sI7310
S'15773794'
p7233
sI7311
S'9525335'
p7234
sI7312
S'594611'
p7235
sI7313
S'2243125'
p7236
sI7314
S'9349116'
p7237
sI7315
S'8777714'
p7238
sI7316
S'10409669'
p7239
sI7317
S'10124858'
p7240
sI7318
S'14989328'
p7241
sI7319
S'12630411'
p7242
sI7320
S'3749971'
p7243
sI7321
S'11436132'
p7244
sI7322
S'4129487'
p7245
sI7323
S'1635672'
p7246
sI7324
S'511733'
p7247
sI7325
S'5148878'
p7248
sI7326
S'12389055'
p7249
sI7327
S'11888026'
p7250
sI7328
S'16037130'
p7251
sI7329
S'14085234'
p7252
sI7330
S'829935'
p7253
sI7331
S'14826702'
p7254
sI7332
S'6818265'
p7255
sI7333
S'9485569'
p7256
sI7334
S'9837205'
p7257
sI7335
S'1349237'
p7258
sI7336
S'16504986'
p7259
sI7337
S'9216865'
p7260
sI7338
S'14946692'
p7261
sI7339
S'2626457'
p7262
sI7340
S'14101329'
p7263
sI7341
S'12679172'
p7264
sI7342
S'6812924'
p7265
sI7343
S'2111172'
p7266
sI7344
S'13952319'
p7267
sI7345
S'13526348'
p7268
sI7346
S'8837432'
p7269
sI7347
S'10754087'
p7270
sI7348
S'16338'
p7271
sI7349
S'1515979'
p7272
sI7350
S'1083888'
p7273
sI7351
S'9425524'
p7274
sI7352
S'7870442'
p7275
sI7353
S'7217351'
p7276
sI7354
S'7952315'
p7277
sI7355
S'3793161'
p7278
sI7356
S'3538463'
p7279
sI7357
S'3531190'
p7280
sI7358
S'15256150'
p7281
sI7359
S'15094925'
p7282
sI7360
S'12698471'
p7283
sI7361
S'506527'
p7284
sI7362
S'9241956'
p7285
sI7363
S'3540370'
p7286
sI7364
S'4947515'
p7287
sI7365
S'796404'
p7288
sI7366
S'10086307'
p7289
sI7367
S'12230921'
p7290
sI7368
S'8799384'
p7291
sI7369
S'14712227'
p7292
sI7370
S'1847153'
p7293
sI7371
S'16578474'
p7294
sI7372
S'6371588'
p7295
sI7373
S'1221511'
p7296
sI7374
S'781946'
p7297
sI7375
S'9667996'
p7298
sI7376
S'15911155'
p7299
sI7377
S'6973159'
p7300
sI7378
S'1109826'
p7301
sI7379
S'13723317'
p7302
sI7380
S'6292833'
p7303
sI7381
S'1423112'
p7304
sI7382
S'5918025'
p7305
sI7383
S'13603865'
p7306
sI7384
S'14238443'
p7307
sI7385
S'16238449'
p7308
sI7386
S'13791541'
p7309
sI7387
S'12796784'
p7310
sI7388
S'6833000'
p7311
sI7389
S'14570670'
p7312
sI7390
S'4126452'
p7313
sI7391
S'830482'
p7314
sI7392
S'13954028'
p7315
sI7393
S'8409575'
p7316
sI7394
S'8533225'
p7317
sI7395
S'8864262'
p7318
sI7396
S'13743350'
p7319
sI7397
S'2243462'
p7320
sI7398
S'15488128'
p7321
sI7399
S'121473'
p7322
sI7400
S'6071456'
p7323
sI7401
S'6390092'
p7324
sI7402
S'13431961'
p7325
sI7403
S'9826081'
p7326
sI7404
S'7858824'
p7327
sI7405
S'4296266'
p7328
sI7406
S'1255225'
p7329
sI7407
S'11720001'
p7330
sI7408
S'290058'
p7331
sI7409
S'16794244'
p7332
sI7410
S'16000365'
p7333
sI7411
S'1687120'
p7334
sI7412
S'718030'
p7335
sI7413
S'385853'
p7336
sI7414
S'4564757'
p7337
sI7415
S'11616592'
p7338
sI7416
S'9911083'
p7339
sI7417
S'11772032'
p7340
sI7418
S'1910270'
p7341
sI7419
S'12130620'
p7342
sI7420
S'14951017'
p7343
sI7421
S'6234539'
p7344
sI7422
S'4071007'
p7345
sI7423
S'16361717'
p7346
sI7424
S'15535199'
p7347
sI7425
S'15509'
p7348
sI7426
S'11136854'
p7349
sI7427
S'960210'
p7350
sI7428
S'15309509'
p7351
sI7429
S'3585309'
p7352
sI7430
S'2208567'
p7353
sI7431
S'5384971'
p7354
sI7432
S'1570204'
p7355
sI7433
S'4720460'
p7356
sI7434
S'1197135'
p7357
sI7435
S'6765570'
p7358
sI7436
S'6433445'
p7359
sI7437
S'29683'
p7360
sI7438
S'15423923'
p7361
sI7439
S'37106'
p7362
sI7440
S'546504'
p7363
sI7441
S'10474780'
p7364
sI7442
S'14633924'
p7365
sI7443
S'16346527'
p7366
sI7444
S'8029907'
p7367
sI7445
S'4044625'
p7368
sI7446
S'229367'
p7369
sI7447
S'10784550'
p7370
sI7448
S'6611652'
p7371
sI7449
S'13218512'
p7372
sI7450
S'13299532'
p7373
sI7451
S'3534379'
p7374
sI7452
S'13564134'
p7375
sI7453
S'896656'
p7376
sI7454
S'765315'
p7377
sI7455
S'434792'
p7378
sI7456
S'12252231'
p7379
sI7457
S'11547967'
p7380
sI7458
S'136528'
p7381
sI7459
S'15581722'
p7382
sI7460
S'1147507'
p7383
sI7461
S'10270687'
p7384
sI7462
S'245574'
p7385
sI7463
S'4967191'
p7386
sI7464
S'1744216'
p7387
sI7465
S'3325310'
p7388
sI7466
S'5965198'
p7389
sI7467
S'4155012'
p7390
sI7468
S'13971697'
p7391
sI7469
S'4378951'
p7392
sI7470
S'13281916'
p7393
sI7471
S'9227929'
p7394
sI7472
S'24686'
p7395
sI7473
S'9007111'
p7396
sI7474
S'3595554'
p7397
sI7475
S'10902743'
p7398
sI7476
S'11276602'
p7399
sI7477
S'16005456'
p7400
sI7478
S'8668115'
p7401
sI7479
S'279816'
p7402
sI7480
S'14520743'
p7403
sI7481
S'14947668'
p7404
sI7482
S'13183672'
p7405
sI7483
S'4129541'
p7406
sI7484
S'796232'
p7407
sI7485
S'320900'
p7408
sI7486
S'12826811'
p7409
sI7487
S'6644580'
p7410
sI7488
S'253466'
p7411
sI7489
S'13148370'
p7412
sI7490
S'6784345'
p7413
sI7491
S'2995708'
p7414
sI7492
S'9239583'
p7415
sI7493
S'7791224'
p7416
sI7494
S'1276303'
p7417
sI7495
S'834871'
p7418
sI7496
S'12540167'
p7419
sI7497
S'14111092'
p7420
sI7498
S'15463166'
p7421
sI7499
S'11049502'
p7422
sI7500
S'3270809'
p7423
sI7501
S'15837464'
p7424
sI7502
S'855462'
p7425
sI7503
S'594640'
p7426
sI7504
S'15028194'
p7427
sI7505
S'5476474'
p7428
sI7506
S'13279591'
p7429
sI7507
S'14467010'
p7430
sI7508
S'5801640'
p7431
sI7509
S'13083733'
p7432
sI7510
S'14648556'
p7433
sI7511
S'2952861'
p7434
sI7512
S'7561675'
p7435
sI7513
S'2842830'
p7436
sI7514
S'9104108'
p7437
sI7515
S'682155'
p7438
sI7516
S'450578'
p7439
sI7517
S'205485'
p7440
sI7518
S'11531570'
p7441
sI7519
S'8206718'
p7442
sI7520
S'7542830'
p7443
sI7521
S'12433302'
p7444
sI7522
S'14261371'
p7445
sI7523
S'6939859'
p7446
sI7524
S'13478495'
p7447
sI7525
S'6973705'
p7448
sI7526
S'1327940'
p7449
sI7527
S'11419133'
p7450
sI7528
S'10969246'
p7451
sI7529
S'440349'
p7452
sI7530
S'7411044'
p7453
sI7531
S'16179907'
p7454
sI7532
S'3462626'
p7455
sI7533
S'13848005'
p7456
sI7534
S'510543'
p7457
sI7535
S'6556411'
p7458
sI7536
S'4807899'
p7459
sI7537
S'54860'
p7460
sI7538
S'7333311'
p7461
sI7539
S'13209405'
p7462
sI7540
S'1881846'
p7463
sI7541
S'15262831'
p7464
sI7542
S'15146022'
p7465
sI7543
S'7768655'
p7466
sI7544
S'13488308'
p7467
sI7545
S'8680417'
p7468
sI7546
S'3891031'
p7469
sI7547
S'15508561'
p7470
sI7548
S'12996544'
p7471
sI7549
S'2366335'
p7472
sI7550
S'1410197'
p7473
sI7551
S'5655462'
p7474
sI7552
S'12315897'
p7475
sI7553
S'10880241'
p7476
sI7554
S'4726448'
p7477
sI7555
S'2545486'
p7478
sI7556
S'8173226'
p7479
sI7557
S'4227799'
p7480
sI7558
S'9765276'
p7481
sI7559
S'7262279'
p7482
sI7560
S'11338485'
p7483
sI7561
S'6947477'
p7484
sI7562
S'6647114'
p7485
sI7563
S'14219316'
p7486
sI7564
S'7223381'
p7487
sI7565
S'14273960'
p7488
sI7566
S'14672067'
p7489
sI7567
S'14695540'
p7490
sI7568
S'15937208'
p7491
sI7569
S'2026749'
p7492
sI7570
S'769786'
p7493
sI7571
S'818114'
p7494
sI7572
S'8525292'
p7495
sI7573
S'3447238'
p7496
sI7574
S'13881787'
p7497
sI7575
S'14747893'
p7498
sI7576
S'15873852'
p7499
sI7577
S'4091322'
p7500
sI7578
S'2817022'
p7501
sI7579
S'4372055'
p7502
sI7580
S'15865207'
p7503
sI7581
S'14820644'
p7504
sI7582
S'9216664'
p7505
sI7583
S'2083671'
p7506
sI7584
S'10819587'
p7507
sI7585
S'8163625'
p7508
sI7586
S'13829549'
p7509
sI7587
S'13090837'
p7510
sI7588
S'10983426'
p7511
sI7589
S'8069684'
p7512
sI7590
S'15359350'
p7513
sI7591
S'10133691'
p7514
sI7592
S'4916223'
p7515
sI7593
S'5433746'
p7516
sI7594
S'1323801'
p7517
sI7595
S'3369053'
p7518
sI7596
S'11729196'
p7519
sI7597
S'5618865'
p7520
sI7598
S'2739112'
p7521
sI7599
S'12587698'
p7522
sI7600
S'23545'
p7523
sI7601
S'15493096'
p7524
sI7602
S'27659'
p7525
sI7603
S'11421608'
p7526
sI7604
S'2416104'
p7527
sI7605
S'15037480'
p7528
sI7606
S'3341682'
p7529
sI7607
S'14616148'
p7530
sI7608
S'9674453'
p7531
sI7609
S'10166883'
p7532
sI7610
S'4261691'
p7533
sI7611
S'4261693'
p7534
sI7612
S'6378298'
p7535
sI7613
S'8810937'
p7536
sI7614
S'15964959'
p7537
sI7615
S'1102963'
p7538
sI7616
S'705997'
p7539
sI7617
S'16361507'
p7540
sI7618
S'11604005'
p7541
sI7619
S'16283820'
p7542
sI7620
S'9919727'
p7543
sI7621
S'6233785'
p7544
sI7622
S'1556896'
p7545
sI7623
S'6954349'
p7546
sI7624
S'15323278'
p7547
sI7625
S'2085632'
p7548
sI7626
S'4784867'
p7549
sI7627
S'982038'
p7550
sI7628
S'15774465'
p7551
sI7629
S'10156574'
p7552
sI7630
S'925219'
p7553
sI7631
S'1284990'
p7554
sI7632
S'13007629'
p7555
sI7633
S'6414759'
p7556
sI7634
S'9093389'
p7557
sI7635
S'14951775'
p7558
sI7636
S'532749'
p7559
sI7637
S'4828336'
p7560
sI7638
S'12186697'
p7561
sI7639
S'15806659'
p7562
sI7640
S'5268960'
p7563
sI7641
S'4048043'
p7564
sI7642
S'468646'
p7565
sI7643
S'5132306'
p7566
sI7644
S'9547920'
p7567
sI7645
S'15147021'
p7568
sI7646
S'13836544'
p7569
sI7647
S'7450973'
p7570
sI7648
S'14119987'
p7571
sI7649
S'6451722'
p7572
sI7650
S'8532358'
p7573
sI7651
S'8535434'
p7574
sI7652
S'16872793'
p7575
sI7653
S'1129483'
p7576
sI7654
S'1392144'
p7577
sI7655
S'13997552'
p7578
sI7656
S'5899598'
p7579
sI7657
S'250259'
p7580
sI7658
S'4710564'
p7581
sI7659
S'3984821'
p7582
sI7660
S'2634573'
p7583
sI7661
S'13208951'
p7584
sI7662
S'14355535'
p7585
sI7663
S'1228294'
p7586
sI7664
S'9682826'
p7587
sI7665
S'13220017'
p7588
sI7666
S'585300'
p7589
sI7667
S'9887654'
p7590
sI7668
S'5671103'
p7591
sI7669
S'12941015'
p7592
sI7670
S'7310413'
p7593
sI7671
S'2124536'
p7594
sI7672
S'3503403'
p7595
sI7673
S'16380794'
p7596
sI7674
S'14825914'
p7597
sI7675
S'14547628'
p7598
sI7676
S'93313'
p7599
sI7677
S'2424199'
p7600
sI7678
S'12267599'
p7601
sI7679
S'5396240'
p7602
sI7680
S'6292850'
p7603
sI7681
S'54453'
p7604
sI7682
S'15346892'
p7605
sI7683
S'2470754'
p7606
sI7684
S'828796'
p7607
sI7685
S'16808529'
p7608
sI7686
S'10050536'
p7609
sI7687
S'14553422'
p7610
sI7688
S'8552108'
p7611
sI7689
S'4737133'
p7612
sI7690
S'15215464'
p7613
sI7691
S'8308683'
p7614
sI7692
S'923722'
p7615
sI7693
S'11096801'
p7616
sI7694
S'12174580'
p7617
sI7695
S'16869613'
p7618
sI7696
S'3213712'
p7619
sI7697
S'7772705'
p7620
sI7698
S'16472789'
p7621
sI7699
S'15713652'
p7622
sI7700
S'10743221'
p7623
sI7701
S'4263330'
p7624
sI7702
S'6999056'
p7625
sI7703
S'7265249'
p7626
sI7704
S'168123'
p7627
sI7705
S'11207101'
p7628
sI7706
S'496095'
p7629
sI7707
S'5231014'
p7630
sI7708
S'15543090'
p7631
sI7709
S'10124343'
p7632
sI7710
S'2080861'
p7633
sI7711
S'512022'
p7634
sI7712
S'10528090'
p7635
sI7713
S'13232952'
p7636
sI7714
S'7192809'
p7637
sI7715
S'6592944'
p7638
sI7716
S'14916283'
p7639
sI7717
S'8548529'
p7640
sI7718
S'13770490'
p7641
sI7719
S'4191941'
p7642
sI7720
S'14071802'
p7643
sI7721
S'8842752'
p7644
sI7722
S'12827518'
p7645
sI7723
S'2208545'
p7646
sI7724
S'9695932'
p7647
sI7725
S'13895453'
p7648
sI7726
S'13618921'
p7649
sI7727
S'8720655'
p7650
sI7728
S'557356'
p7651
sI7729
S'4593770'
p7652
sI7730
S'7343512'
p7653
sI7731
S'10828985'
p7654
sI7732
S'4376618'
p7655
sI7733
S'9550714'
p7656
sI7734
S'195240'
p7657
sI7735
S'14388651'
p7658
sI7736
S'375249'
p7659
sI7737
S'15272484'
p7660
sI7738
S'148825'
p7661
sI7739
S'7227760'
p7662
sI7740
S'12110777'
p7663
sI7741
S'13318694'
p7664
sI7742
S'2051500'
p7665
sI7743
S'9201989'
p7666
sI7744
S'14502987'
p7667
sI7745
S'3741504'
p7668
sI7746
S'4218129'
p7669
sI7747
S'14434'
p7670
sI7748
S'3652230'
p7671
sI7749
S'16631349'
p7672
sI7750
S'1612489'
p7673
sI7751
S'15154905'
p7674
sI7752
S'15581887'
p7675
sI7753
S'239733'
p7676
sI7754
S'7955150'
p7677
sI7755
S'14050933'
p7678
sI7756
S'600286'
p7679
sI7757
S'15454635'
p7680
sI7758
S'10697652'
p7681
sI7759
S'11020169'
p7682
sI7760
S'8993887'
p7683
sI7761
S'6930780'
p7684
sI7762
S'14179828'
p7685
sI7763
S'15042638'
p7686
sI7764
S'14872031'
p7687
sI7765
S'10837800'
p7688
sI7766
S'4322146'
p7689
sI7767
S'13808'
p7690
sI7768
S'7205539'
p7691
sI7769
S'6967723'
p7692
sI7770
S'1054201'
p7693
sI7771
S'3386746'
p7694
sI7772
S'14154038'
p7695
sI7773
S'6994038'
p7696
sI7774
S'10755963'
p7697
sI7775
S'1586773'
p7698
sI7776
S'13467270'
p7699
sI7777
S'15895829'
p7700
sI7778
S'16796130'
p7701
sI7779
S'924600'
p7702
sI7780
S'12566413'
p7703
sI7781
S'3605388'
p7704
sI7782
S'12366762'
p7705
sI7783
S'6324345'
p7706
sI7784
S'8174115'
p7707
sI7785
S'9713934'
p7708
sI7786
S'13753375'
p7709
sI7787
S'9359064'
p7710
sI7788
S'2553205'
p7711
sI7789
S'9110077'
p7712
sI7790
S'3967613'
p7713
sI7791
S'9362344'
p7714
sI7792
S'7837816'
p7715
sI7793
S'4250746'
p7716
sI7794
S'14582505'
p7717
sI7795
S'7867805'
p7718
sI7796
S'14934141'
p7719
sI7797
S'11911515'
p7720
sI7798
S'1476853'
p7721
sI7799
S'9677744'
p7722
sI7800
S'8622987'
p7723
sI7801
S'1682958'
p7724
sI7802
S'9393213'
p7725
sI7803
S'1240586'
p7726
sI7804
S'11225740'
p7727
sI7805
S'7280443'
p7728
sI7806
S'766542'
p7729
sI7807
S'13149593'
p7730
sI7808
S'656946'
p7731
sI7809
S'13345137'
p7732
sI7810
S'6662511'
p7733
sI7811
S'8475392'
p7734
sI7812
S'32037'
p7735
sI7813
S'975990'
p7736
sI7814
S'922764'
p7737
sI7815
S'85094'
p7738
sI7816
S'809567'
p7739
sI7817
S'8634515'
p7740
sI7818
S'14925244'
p7741
sI7819
S'8255959'
p7742
sI7820
S'4698479'
p7743
sI7821
S'7482821'
p7744
sI7822
S'2420198'
p7745
sI7823
S'336449'
p7746
sI7824
S'683084'
p7747
sI7825
S'4111538'
p7748
sI7826
S'8888250'
p7749
sI7827
S'8161110'
p7750
sI7828
S'14202489'
p7751
sI7829
S'12419487'
p7752
sI7830
S'1935091'
p7753
sI7831
S'6405051'
p7754
sI7832
S'16578129'
p7755
sI7833
S'14029928'
p7756
sI7834
S'9425314'
p7757
sI7835
S'11871932'
p7758
sI7836
S'7349256'
p7759
sI7837
S'54846'
p7760
sI7838
S'1551044'
p7761
sI7839
S'13091999'
p7762
sI7840
S'10249886'
p7763
sI7841
S'9798242'
p7764
sI7842
S'9879235'
p7765
sI7843
S'337922'
p7766
sI7844
S'5536824'
p7767
sI7845
S'16586281'
p7768
sI7846
S'15282119'
p7769
sI7847
S'431330'
p7770
sI7848
S'5236904'
p7771
sI7849
S'9250374'
p7772
sI7850
S'2453855'
p7773
sI7851
S'600877'
p7774
sI7852
S'68403'
p7775
sI7853
S'14180715'
p7776
sI7854
S'6391062'
p7777
sI7855
S'10499892'
p7778
sI7856
S'10487548'
p7779
sI7857
S'15259634'
p7780
sI7858
S'4368547'
p7781
sI7859
S'13495190'
p7782
sI7860
S'9464046'
p7783
sI7861
S'840391'
p7784
sI7862
S'3372399'
p7785
sI7863
S'13729934'
p7786
sI7864
S'9609356'
p7787
sI7865
S'14153255'
p7788
sI7866
S'38663'
p7789
sI7867
S'9856598'
p7790
sI7868
S'14595903'
p7791
sI7869
S'16146783'
p7792
sI7870
S'4701425'
p7793
sI7871
S'16013512'
p7794
sI7872
S'8372912'
p7795
sI7873
S'10132452'
p7796
sI7874
S'13503536'
p7797
sI7875
S'4763327'
p7798
sI7876
S'735674'
p7799
sI7877
S'5414503'
p7800
sI7878
S'1110430'
p7801
sI7879
S'6570330'
p7802
sI7880
S'10013027'
p7803
sI7881
S'2263756'
p7804
sI7882
S'13948226'
p7805
sI7883
S'13371473'
p7806
sI7884
S'7858532'
p7807
sI7885
S'8698671'
p7808
sI7886
S'15179568'
p7809
sI7887
S'1279189'
p7810
sI7888
S'15206836'
p7811
sI7889
S'828218'
p7812
sI7890
S'15052480'
p7813
sI7891
S'9612758'
p7814
sI7892
S'6676415'
p7815
sI7893
S'6812061'
p7816
sI7894
S'1090036'
p7817
sI7895
S'651648'
p7818
sI7896
S'9594995'
p7819
sI7897
S'11282788'
p7820
sI7898
S'7651885'
p7821
sI7899
S'7455635'
p7822
sI7900
S'9490272'
p7823
sI7901
S'15048288'
p7824
sI7902
S'5285358'
p7825
sI7903
S'14284950'
p7826
sI7904
S'8885835'
p7827
sI7905
S'1341215'
p7828
sI7906
S'16334327'
p7829
sI7907
S'14588156'
p7830
sI7908
S'14821133'
p7831
sI7909
S'4784846'
p7832
sI7910
S'4491200'
p7833
sI7911
S'6373238'
p7834
sI7912
S'9327151'
p7835
sI7913
S'2125004'
p7836
sI7914
S'6609871'
p7837
sI7915
S'14689147'
p7838
sI7916
S'11135107'
p7839
sI7917
S'9513511'
p7840
sI7918
S'12764378'
p7841
sI7919
S'838677'
p7842
sI7920
S'16613394'
p7843
sI7921
S'13795756'
p7844
sI7922
S'9999939'
p7845
sI7923
S'13431664'
p7846
sI7924
S'15864683'
p7847
sI7925
S'4439839'
p7848
sI7926
S'15952702'
p7849
sI7927
S'1258651'
p7850
sI7928
S'166541'
p7851
sI7929
S'606269'
p7852
sI7930
S'5589159'
p7853
sI7931
S'4546248'
p7854
sI7932
S'15989325'
p7855
sI7933
S'11591546'
p7856
sI7934
S'8145339'
p7857
sI7935
S'8473374'
p7858
sI7936
S'4129992'
p7859
sI7937
S'7870403'
p7860
sI7938
S'15234002'
p7861
sI7939
S'7758083'
p7862
sI7940
S'6798347'
p7863
sI7941
S'305554'
p7864
sI7942
S'1971200'
p7865
sI7943
S'14937607'
p7866
sI7944
S'14229842'
p7867
sI7945
S'4165037'
p7868
sI7946
S'3350417'
p7869
sI7947
S'231145'
p7870
sI7948
S'3094833'
p7871
sI7949
S'15482198'
p7872
sI7950
S'4129195'
p7873
sI7951
S'16353458'
p7874
sI7952
S'4553721'
p7875
sI7953
S'806068'
p7876
sI7954
S'5826013'
p7877
sI7955
S'16450348'
p7878
sI7956
S'2046225'
p7879
sI7957
S'11351798'
p7880
sI7958
S'4812995'
p7881
sI7959
S'2246112'
p7882
sI7960
S'12365940'
p7883
sI7961
S'12955943'
p7884
sI7962
S'8205701'
p7885
sI7963
S'3969705'
p7886
sI7964
S'12205049'
p7887
sI7965
S'15663574'
p7888
sI7966
S'2043289'
p7889
sI7967
S'1164111'
p7890
sI7968
S'7934867'
p7891
sI7969
S'4257343'
p7892
sI7970
S'7094807'
p7893
sI7971
S'8165139'
p7894
sI7972
S'8664611'
p7895
sI7973
S'2210219'
p7896
sI7974
S'7180876'
p7897
sI7975
S'7344761'
p7898
sI7976
S'8547630'
p7899
sI7977
S'6705598'
p7900
sI7978
S'4857619'
p7901
sI7979
S'2268005'
p7902
sI7980
S'8353055'
p7903
sI7981
S'10011509'
p7904
sI7982
S'13272041'
p7905
sI7983
S'653166'
p7906
sI7984
S'3874870'
p7907
sI7985
S'152819'
p7908
sI7986
S'6225974'
p7909
sI7987
S'2181941'
p7910
sI7988
S'3434211'
p7911
sI7989
S'16475570'
p7912
sI7990
S'7480890'
p7913
sI7991
S'6796770'
p7914
sI7992
S'6602421'
p7915
sI7993
S'7980191'
p7916
sI7994
S'15050192'
p7917
sI7995
S'643877'
p7918
sI7996
S'9753077'
p7919
sI7997
S'6208002'
p7920
sI7998
S'638822'
p7921
sI7999
S'13680118'
p7922
sI8000
S'16659292'
p7923
sI8001
S'8971863'
p7924
sI8002
S'13639075'
p7925
sI8003
S'10153654'
p7926
sI8004
S'3877193'
p7927
sI8005
S'3710436'
p7928
sI8006
S'2461540'
p7929
sI8007
S'12411474'
p7930
sI8008
S'5378919'
p7931
sI8009
S'12064423'
p7932
sI8010
S'11037023'
p7933
sI8011
S'1183172'
p7934
sI8012
S'16810467'
p7935
sI8013
S'13293463'
p7936
sI8014
S'1079229'
p7937
sI8015
S'15497443'
p7938
sI8016
S'9079628'
p7939
sI8017
S'15818253'
p7940
sI8018
S'16214854'
p7941
sI8019
S'9978606'
p7942
sI8020
S'15049253'
p7943
sI8021
S'13902725'
p7944
sI8022
S'4875849'
p7945
sI8023
S'16899285'
p7946
sI8024
S'6055980'
p7947
sI8025
S'8439595'
p7948
sI8026
S'5537851'
p7949
sI8027
S'7309427'
p7950
sI8028
S'9944788'
p7951
sI8029
S'7418759'
p7952
sI8030
S'7351144'
p7953
sI8031
S'2254582'
p7954
sI8032
S'9475812'
p7955
sI8033
S'16487769'
p7956
sI8034
S'10083973'
p7957
sI8035
S'5481237'
p7958
sI8036
S'2685701'
p7959
sI8037
S'9476353'
p7960
sI8038
S'3421589'
p7961
sI8039
S'6487196'
p7962
sI8040
S'16274775'
p7963
sI8041
S'13249656'
p7964
sI8042
S'5519207'
p7965
sI8043
S'15728520'
p7966
sI8044
S'11689494'
p7967
sI8045
S'435774'
p7968
sI8046
S'9348923'
p7969
sI8047
S'5872177'
p7970
sI8048
S'11992103'
p7971
sI8049
S'6144621'
p7972
sI8050
S'16241503'
p7973
sI8051
S'624222'
p7974
sI8052
S'4118921'
p7975
sI8053
S'15453645'
p7976
sI8054
S'13675413'
p7977
sI8055
S'3826908'
p7978
sI8056
S'4948364'
p7979
sI8057
S'13252254'
p7980
sI8058
S'16273206'
p7981
sI8059
S'7516992'
p7982
sI8060
S'10233244'
p7983
sI8061
S'5823579'
p7984
sI8062
S'9107788'
p7985
sI8063
S'11548429'
p7986
sI8064
S'1122462'
p7987
sI8065
S'3143838'
p7988
sI8066
S'6827028'
p7989
sI8067
S'2685940'
p7990
sI8068
S'7913704'
p7991
sI8069
S'3258196'
p7992
sI8070
S'751818'
p7993
s.