(dp1
VLa Semana Hotel 
p2
(S'https://www.tripadvisor.com/Hotel_Review-g60763-d290982-Reviews-La_Semana_Hotel-New_York_City_New_York.html'
p3
F1.5
tp4
sVThe Knickerbocker 
p5
(S'https://www.tripadvisor.com/Hotel_Review-g60763-d7255276-Reviews-The_Knickerbocker-New_York_City_New_York.html'
F4.5
tp6
sVHotel Metro 
p7
(S'https://www.tripadvisor.com/Hotel_Review-g60763-d99392-Reviews-Hotel_Metro-New_York_City_New_York.html'
F4.5
tp8
sVTrump SoHo New York 
p9
(S'https://www.tripadvisor.com/Hotel_Review-g60763-d1456416-Reviews-Trump_SoHo_New_York-New_York_City_New_York.html'
F4.5
tp10
sVThe Redbury New York 
p11
(S'https://www.tripadvisor.com/Hotel_Review-g60763-d125274-Reviews-The_Redbury_New_York-New_York_City_New_York.html'
F4
tp12
sVSmyth, a Thompson Hotel 
p13
(S'https://www.tripadvisor.com/Hotel_Review-g60763-d1371825-Reviews-Smyth_a_Thompson_Hotel-New_York_City_New_York.html'
F4.5
tp14
sVHotel Chandler 
p15
(S'https://www.tripadvisor.com/Hotel_Review-g60763-d223024-Reviews-Hotel_Chandler-New_York_City_New_York.html'
F4.5
tp16
sVHoliday Inn Express New York City 
p17
(S'https://www.tripadvisor.com/Hotel_Review-g60763-d584986-Reviews-Holiday_Inn_Express_New_York_City-New_York_City_New_York.html'
F4
tp18
sVThe Amsterdam Inn 
p19
(S'https://www.tripadvisor.com/Hotel_Review-g60763-d260396-Reviews-The_Amsterdam_Inn-New_York_City_New_York.html'
F3
tp20
sVHotel Pennsylvania New York 
p21
(S'https://www.tripadvisor.com/Hotel_Review-g60763-d214197-Reviews-Hotel_Pennsylvania_New_York-New_York_City_New_York.html'
F2.5
tp22
sVWorld Center Hotel 
p23
(S'https://www.tripadvisor.com/Hotel_Review-g60763-d1553789-Reviews-World_Center_Hotel-New_York_City_New_York.html'
F4.5
tp24
sVGardens NYC\u2013an Affinia hotel 
p25
(S'https://www.tripadvisor.com/Hotel_Review-g60763-d93467-Reviews-Gardens_NYC_an_Affinia_hotel-New_York_City_New_York.html'
F4.5
tp26
sVDoubletree by Hilton New York Times Square West 
p27
(S'https://www.tripadvisor.com/Hotel_Review-g60763-d11236004-Reviews-Doubletree_by_Hilton_New_York_Times_Square_West-New_York_City_New_York.html'
F3.5
tp28
sVThe Jewel facing Rockefeller Center 
p29
(S'https://www.tripadvisor.com/Hotel_Review-g60763-d1913413-Reviews-The_Jewel_facing_Rockefeller_Center-New_York_City_New_York.html'
F4.5
tp30
sVHotel Plaza Athenee New York 
p31
(S'https://www.tripadvisor.com/Hotel_Review-g60763-d93606-Reviews-Hotel_Plaza_Athenee_New_York-New_York_City_New_York.html'
F4.5
tp32
sVWarwick New York 
p33
(S'https://www.tripadvisor.com/Hotel_Review-g60763-d112064-Reviews-Warwick_New_York-New_York_City_New_York.html'
F4.5
tp34
sVManhattan Broadway Hotel 
p35
(S'https://www.tripadvisor.com/Hotel_Review-g60763-d122007-Reviews-Manhattan_Broadway_Hotel-New_York_City_New_York.html'
F2.5
tp36
sVOakwood at Longacre House 
p37
(S'https://www.tripadvisor.com/Hotel_Review-g60763-d268218-Reviews-Oakwood_at_Longacre_House-New_York_City_New_York.html'
F3
tp38
sVRedford Hotel 
p39
(S'https://www.tripadvisor.com/Hotel_Review-g60763-d1583937-Reviews-Redford_Hotel-New_York_City_New_York.html'
F3.5
tp40
sVFour Points by Sheraton Manhattan Chelsea 
p41
(S'https://www.tripadvisor.com/Hotel_Review-g60763-d281234-Reviews-Four_Points_by_Sheraton_Manhattan_Chelsea-New_York_City_New_York.html'
F4
tp42
sVHotel Giraffe by Library Hotel Collection 
p43
(S'https://www.tripadvisor.com/Hotel_Review-g60763-d99762-Reviews-Hotel_Giraffe_by_Library_Hotel_Collection-New_York_City_New_York.html'
F5
tp44
sVU.S. Pacific Hotel 
p45
(S'https://www.tripadvisor.com/Hotel_Review-g60763-d8722421-Reviews-U_S_Pacific_Hotel-New_York_City_New_York.html'
F2.5
tp46
sVInterContinental New York Times Square 
p47
(S'https://www.tripadvisor.com/Hotel_Review-g60763-d1646128-Reviews-InterContinental_New_York_Times_Square-New_York_City_New_York.html'
F4.5
tp48
sVThe Roxy Hotel Tribeca 
p49
(S'https://www.tripadvisor.com/Hotel_Review-g60763-d208455-Reviews-The_Roxy_Hotel_Tribeca-New_York_City_New_York.html'
F4.5
tp50
sVNew York Inn 
p51
(S'https://www.tripadvisor.com/Hotel_Review-g60763-d93356-Reviews-New_York_Inn-New_York_City_New_York.html'
F2
tp52
sVKimpton Ink48 Hotel 
p53
(S'https://www.tripadvisor.com/Hotel_Review-g60763-d1158753-Reviews-Kimpton_Ink48_Hotel-New_York_City_New_York.html'
F4.5
tp54
sVHoliday Inn NYC - Lower East Side 
p55
(S'https://www.tripadvisor.com/Hotel_Review-g60763-d3236642-Reviews-Holiday_Inn_NYC_Lower_East_Side-New_York_City_New_York.html'
F4
tp56
sVONE UN New York 
p57
(S'https://www.tripadvisor.com/Hotel_Review-g60763-d209382-Reviews-ONE_UN_New_York-New_York_City_New_York.html'
F4.5
tp58
sVMorningside Inn 
p59
(S'https://www.tripadvisor.com/Hotel_Review-g60763-d249710-Reviews-Morningside_Inn-New_York_City_New_York.html'
F3
tp60
sVSIXTY SoHo 
p61
(S'https://www.tripadvisor.com/Hotel_Review-g60763-d93398-Reviews-SIXTY_SoHo-New_York_City_New_York.html'
F4.5
tp62
sVElk Hotel 
p63
(S'https://www.tripadvisor.com/Hotel_Review-g60763-d1990870-Reviews-Elk_Hotel-New_York_City_New_York.html'
F2.5
tp64
sVHotel Mimosa 
p65
(S'https://www.tripadvisor.com/Hotel_Review-g60763-d1448670-Reviews-Hotel_Mimosa-New_York_City_New_York.html'
F3
tp66
sVThe Algonquin Hotel Times Square, Autograph Collection 
p67
(S'https://www.tripadvisor.com/Hotel_Review-g60763-d93568-Reviews-The_Algonquin_Hotel_Times_Square_Autograph_Collection-New_York_City_New_York.html'
F4
tp68
sVWorld Hotel 
p69
(S'https://www.tripadvisor.com/Hotel_Review-g60763-d267183-Reviews-World_Hotel-New_York_City_New_York.html'
F1.5
tp70
sVHudson River Hotel 
p71
(S'https://www.tripadvisor.com/Hotel_Review-g60763-d596200-Reviews-Hudson_River_Hotel-New_York_City_New_York.html'
F3.5
tp72
sVParamount Hotel Times Square New York 
p73
(S'https://www.tripadvisor.com/Hotel_Review-g60763-d93517-Reviews-Paramount_Hotel_Times_Square_New_York-New_York_City_New_York.html'
F3.5
tp74
sVThe Dorset 
p75
(S'https://www.tripadvisor.com/Hotel_Review-g60763-d93572-Reviews-The_Dorset-New_York_City_New_York.html'
F2
tp76
sVThe Lucerne Hotel 
p77
(S'https://www.tripadvisor.com/Hotel_Review-g60763-d99281-Reviews-The_Lucerne_Hotel-New_York_City_New_York.html'
F4.5
tp78
sVRiff Chelsea 
p79
(S'https://www.tripadvisor.com/Hotel_Review-g60763-d208888-Reviews-Riff_Chelsea-New_York_City_New_York.html'
F3
tp80
sVWall Street District Hotel 
p81
(S'https://www.tripadvisor.com/Hotel_Review-g60763-d1177257-Reviews-Wall_Street_District_Hotel-New_York_City_New_York.html'
F2
tp82
sVManhattan West Hotel 
p83
(S'https://www.tripadvisor.com/Hotel_Review-g60763-d6701149-Reviews-Manhattan_West_Hotel-New_York_City_New_York.html'
F3
tp84
sVFairfield Inn & Suites New York Midtown Manhattan/Penn Station 
p85
(S'https://www.tripadvisor.com/Hotel_Review-g60763-d3613090-Reviews-Fairfield_Inn_Suites_New_York_Midtown_Manhattan_Penn_Station-New_York_City_New_York.html'
F4.5
tp86
sVNobleDEN Hotel 
p87
(S'https://www.tripadvisor.com/Hotel_Review-g60763-d7363884-Reviews-NobleDEN_Hotel-New_York_City_New_York.html'
F4.5
tp88
sVThe Tuscany - A St Giles Signature Hotel 
p89
(S'https://www.tripadvisor.com/Hotel_Review-g60763-d93431-Reviews-The_Tuscany_A_St_Giles_Signature_Hotel-New_York_City_New_York.html'
F4.5
tp90
sVCassa Hotel Times Square 
p91
(S'https://www.tripadvisor.com/Hotel_Review-g60763-d7148761-Reviews-Cassa_Hotel_Times_Square-New_York_City_New_York.html'
F4.5
tp92
sVMount Royal Hotel & Hostel 
p93
(S'https://www.tripadvisor.com/Hotel_Review-g60763-d557499-Reviews-Mount_Royal_Hotel_Hostel-New_York_City_New_York.html'
F2
tp94
sVPark Savoy 
p95
(S'https://www.tripadvisor.com/Hotel_Review-g60763-d93357-Reviews-Park_Savoy-New_York_City_New_York.html'
F3
tp96
sVHotel Cliff 
p97
(S'https://www.tripadvisor.com/Hotel_Review-g60763-d8530894-Reviews-Hotel_Cliff-New_York_City_New_York.html'
F2.5
tp98
sVOakwood at 777 6th Avenue 
p99
(S'https://www.tripadvisor.com/Hotel_Review-g60763-d268217-Reviews-Oakwood_at_777_6th_Avenue-New_York_City_New_York.html'
F4.5
tp100
sVArlo NoMad 
p101
(S'https://www.tripadvisor.com/Hotel_Review-g60763-d10541730-Reviews-Arlo_NoMad-New_York_City_New_York.html'
F4.5
tp102
sVHotel Riverside Studios 
p103
(S'https://www.tripadvisor.com/Hotel_Review-g60763-d224229-Reviews-Hotel_Riverside_Studios-New_York_City_New_York.html'
F2
tp104
sVNYLO New York City 
p105
(S'https://www.tripadvisor.com/Hotel_Review-g60763-d99288-Reviews-NYLO_New_York_City-New_York_City_New_York.html'
F4.5
tp106
sVSenton Hotel 
p107
(S'https://www.tripadvisor.com/Hotel_Review-g60763-d284904-Reviews-Senton_Hotel-New_York_City_New_York.html'
F1.5
tp108
sVOxbridge Midtown East Apartments 
p109
(S'https://www.tripadvisor.com/Hotel_Review-g60763-d1199530-Reviews-Oxbridge_Midtown_East_Apartments-New_York_City_New_York.html'
F3.5
tp110
sVFlushing Motel 
p111
(S'https://www.tripadvisor.com/Hotel_Review-g60763-d6217892-Reviews-Flushing_Motel-New_York_City_New_York.html'
F3
tp112
sVSignature Properties 
p113
(S'https://www.tripadvisor.com/Hotel_Review-g60763-d1547031-Reviews-Signature_Properties-New_York_City_New_York.html'
F2
tp114
sVSt. Marks Hotel 
p115
(S'https://www.tripadvisor.com/Hotel_Review-g60763-d290987-Reviews-St_Marks_Hotel-New_York_City_New_York.html'
F3.5
tp116
sVHyatt Union Square New York 
p117
(S'https://www.tripadvisor.com/Hotel_Review-g60763-d3533197-Reviews-Hyatt_Union_Square_New_York-New_York_City_New_York.html'
F4.5
tp118
sVLoews Regency New York Hotel 
p119
(S'https://www.tripadvisor.com/Hotel_Review-g60763-d93607-Reviews-Loews_Regency_New_York_Hotel-New_York_City_New_York.html'
F4.5
tp120
sVKitano New York 
p121
(S'https://www.tripadvisor.com/Hotel_Review-g60763-d93337-Reviews-Kitano_New_York-New_York_City_New_York.html'
F4.5
tp122
sVThe Melrose Hotel 
p123
(S'https://www.tripadvisor.com/Hotel_Review-g60763-d1049347-Reviews-The_Melrose_Hotel-New_York_City_New_York.html'
F3
tp124
sVThe Mark 
p125
(S'https://www.tripadvisor.com/Hotel_Review-g60763-d112052-Reviews-The_Mark-New_York_City_New_York.html'
F4.5
tp126
sVGreenwich Hotel 
p127
(S'https://www.tripadvisor.com/Hotel_Review-g60763-d1028569-Reviews-Greenwich_Hotel-New_York_City_New_York.html'
F4.5
tp128
sVBaccarat Hotel & Residences New York 
p129
(S'https://www.tripadvisor.com/Hotel_Review-g60763-d7314002-Reviews-Baccarat_Hotel_Residences_New_York-New_York_City_New_York.html'
F4.5
tp130
sVBeekman Apartments 
p131
(S'https://www.tripadvisor.com/Hotel_Review-g60763-d651216-Reviews-Beekman_Apartments-New_York_City_New_York.html'
F3
tp132
sVEnvoy Club Suites 
p133
(S'https://www.tripadvisor.com/Hotel_Review-g60763-d256738-Reviews-Envoy_Club_Suites-New_York_City_New_York.html'
F3.5
tp134
sVChelsea Inn - 17th Street 
p135
(S'https://www.tripadvisor.com/Hotel_Review-g60763-d80081-Reviews-Chelsea_Inn_17th_Street-New_York_City_New_York.html'
F3
tp136
sVExecutive Hotel LeSoleil 
p137
(S'https://www.tripadvisor.com/Hotel_Review-g60763-d7816364-Reviews-Executive_Hotel_LeSoleil-New_York_City_New_York.html'
F4.5
tp138
sVWest 57th Street by Hilton Club 
p139
(S'https://www.tripadvisor.com/Hotel_Review-g60763-d1308397-Reviews-West_57th_Street_by_Hilton_Club-New_York_City_New_York.html'
F4.5
tp140
sVStewart Hotel 
p141
(S'https://www.tripadvisor.com/Hotel_Review-g60763-d93562-Reviews-Stewart_Hotel-New_York_City_New_York.html'
F4
tp142
sVWindsor Hotel 
p143
(S'https://www.tripadvisor.com/Hotel_Review-g60763-d267182-Reviews-Windsor_Hotel-New_York_City_New_York.html'
F2.5
tp144
sVThe High Line Hotel 
p145
(S'https://www.tripadvisor.com/Hotel_Review-g60763-d4283443-Reviews-The_High_Line_Hotel-New_York_City_New_York.html'
F4.5
tp146
sVDays Inn Hotel New York City-Broadway 
p147
(S'https://www.tripadvisor.com/Hotel_Review-g60763-d142114-Reviews-Days_Inn_Hotel_New_York_City_Broadway-New_York_City_New_York.html'
F3
tp148
sVHoliday Inn Express Manhattan Times Square South 
p149
(S'https://www.tripadvisor.com/Hotel_Review-g60763-d3529145-Reviews-Holiday_Inn_Express_Manhattan_Times_Square_South-New_York_City_New_York.html'
F4.5
tp150
sVRoyal Park Hotel 
p151
(S'https://www.tripadvisor.com/Hotel_Review-g60763-d1155229-Reviews-Royal_Park_Hotel-New_York_City_New_York.html'
F3
tp152
sVMarrakech Hotel 
p153
(S'https://www.tripadvisor.com/Hotel_Review-g60763-d113343-Reviews-Marrakech_Hotel-New_York_City_New_York.html'
F3
tp154
sVChelsea Inn - 11th Avenue 
p155
(S'https://www.tripadvisor.com/Hotel_Review-g60763-d540545-Reviews-Chelsea_Inn_11th_Avenue-New_York_City_New_York.html'
F2
tp156
sVRamada New York/Eastside 
p157
(S'https://www.tripadvisor.com/Hotel_Review-g60763-d99388-Reviews-Ramada_New_York_Eastside-New_York_City_New_York.html'
F4
tp158
s.