(dp1
VLa Semana Hotel 
p2
(S'https://www.tripadvisor.com/Hotel_Review-g60763-d290982-Reviews-La_Semana_Hotel-New_York_City_New_York.html'
S'1.5 of 5 bubbles'
tp3
sVThe Knickerbocker 
p4
(S'https://www.tripadvisor.com/Hotel_Review-g60763-d7255276-Reviews-The_Knickerbocker-New_York_City_New_York.html'
S'4.5 of 5 bubbles'
tp5
sVNew York Inn 
p6
(S'https://www.tripadvisor.com/Hotel_Review-g60763-d93356-Reviews-New_York_Inn-New_York_City_New_York.html'
S'2.0 of 5 bubbles'
tp7
sVHotel Metro 
p8
(S'https://www.tripadvisor.com/Hotel_Review-g60763-d99392-Reviews-Hotel_Metro-New_York_City_New_York.html'
S'4.5 of 5 bubbles'
tp9
sVTrump SoHo New York 
p10
(S'https://www.tripadvisor.com/Hotel_Review-g60763-d1456416-Reviews-Trump_SoHo_New_York-New_York_City_New_York.html'
S'4.5 of 5 bubbles'
tp11
sVStewart Hotel 
p12
(S'https://www.tripadvisor.com/Hotel_Review-g60763-d93562-Reviews-Stewart_Hotel-New_York_City_New_York.html'
S'4.0 of 5 bubbles'
tp13
sVWindsor Hotel 
p14
(S'https://www.tripadvisor.com/Hotel_Review-g60763-d267182-Reviews-Windsor_Hotel-New_York_City_New_York.html'
S'2.5 of 5 bubbles'
tp15
sVSmyth, a Thompson Hotel 
p16
(S'https://www.tripadvisor.com/Hotel_Review-g60763-d1371825-Reviews-Smyth_a_Thompson_Hotel-New_York_City_New_York.html'
S'4.5 of 5 bubbles'
tp17
sVHotel Chandler 
p18
(S'https://www.tripadvisor.com/Hotel_Review-g60763-d223024-Reviews-Hotel_Chandler-New_York_City_New_York.html'
S'4.5 of 5 bubbles'
tp19
sVThe Amsterdam Inn 
p20
(S'https://www.tripadvisor.com/Hotel_Review-g60763-d260396-Reviews-The_Amsterdam_Inn-New_York_City_New_York.html'
S'3.0 of 5 bubbles'
tp21
sVHotel Pennsylvania New York 
p22
(S'https://www.tripadvisor.com/Hotel_Review-g60763-d214197-Reviews-Hotel_Pennsylvania_New_York-New_York_City_New_York.html'
S'2.5 of 5 bubbles'
tp23
sVWorld Center Hotel 
p24
(S'https://www.tripadvisor.com/Hotel_Review-g60763-d1553789-Reviews-World_Center_Hotel-New_York_City_New_York.html'
S'4.5 of 5 bubbles'
tp25
sVGardens NYC\u2013an Affinia hotel 
p26
(S'https://www.tripadvisor.com/Hotel_Review-g60763-d93467-Reviews-Gardens_NYC_an_Affinia_hotel-New_York_City_New_York.html'
S'4.5 of 5 bubbles'
tp27
sVDoubletree by Hilton New York Times Square West 
p28
(S'https://www.tripadvisor.com/Hotel_Review-g60763-d11236004-Reviews-Doubletree_by_Hilton_New_York_Times_Square_West-New_York_City_New_York.html'
S'3.5 of 5 bubbles'
tp29
sVThe Jewel facing Rockefeller Center 
p30
(S'https://www.tripadvisor.com/Hotel_Review-g60763-d1913413-Reviews-The_Jewel_facing_Rockefeller_Center-New_York_City_New_York.html'
S'4.5 of 5 bubbles'
tp31
sVHotel Plaza Athenee New York 
p32
(S'https://www.tripadvisor.com/Hotel_Review-g60763-d93606-Reviews-Hotel_Plaza_Athenee_New_York-New_York_City_New_York.html'
S'4.5 of 5 bubbles'
tp33
sVThe Melrose Hotel 
p34
(S'https://www.tripadvisor.com/Hotel_Review-g60763-d1049347-Reviews-The_Melrose_Hotel-New_York_City_New_York.html'
S'3.0 of 5 bubbles'
tp35
sVOakwood at Longacre House 
p36
(S'https://www.tripadvisor.com/Hotel_Review-g60763-d268218-Reviews-Oakwood_at_Longacre_House-New_York_City_New_York.html'
S'3.0 of 5 bubbles'
tp37
sVRedford Hotel 
p38
(S'https://www.tripadvisor.com/Hotel_Review-g60763-d1583937-Reviews-Redford_Hotel-New_York_City_New_York.html'
S'3.5 of 5 bubbles'
tp39
sVFour Points by Sheraton Manhattan Chelsea 
p40
(S'https://www.tripadvisor.com/Hotel_Review-g60763-d281234-Reviews-Four_Points_by_Sheraton_Manhattan_Chelsea-New_York_City_New_York.html'
S'4.0 of 5 bubbles'
tp41
sVHotel Giraffe by Library Hotel Collection 
p42
(S'https://www.tripadvisor.com/Hotel_Review-g60763-d99762-Reviews-Hotel_Giraffe_by_Library_Hotel_Collection-New_York_City_New_York.html'
S'5.0 of 5 bubbles'
tp43
sVThe Algonquin Hotel Times Square, Autograph Collection 
p44
(S'https://www.tripadvisor.com/Hotel_Review-g60763-d93568-Reviews-The_Algonquin_Hotel_Times_Square_Autograph_Collection-New_York_City_New_York.html'
S'4.0 of 5 bubbles'
tp45
sVInterContinental New York Times Square 
p46
(S'https://www.tripadvisor.com/Hotel_Review-g60763-d1646128-Reviews-InterContinental_New_York_Times_Square-New_York_City_New_York.html'
S'4.5 of 5 bubbles'
tp47
sVU.S. Pacific Hotel 
p48
(S'https://www.tripadvisor.com/Hotel_Review-g60763-d8722421-Reviews-U_S_Pacific_Hotel-New_York_City_New_York.html'
S'2.5 of 5 bubbles'
tp49
sVRamada New York/Eastside 
p50
(S'https://www.tripadvisor.com/Hotel_Review-g60763-d99388-Reviews-Ramada_New_York_Eastside-New_York_City_New_York.html'
S'4.0 of 5 bubbles'
tp51
sVKimpton Ink48 Hotel 
p52
(S'https://www.tripadvisor.com/Hotel_Review-g60763-d1158753-Reviews-Kimpton_Ink48_Hotel-New_York_City_New_York.html'
S'4.5 of 5 bubbles'
tp53
sVHoliday Inn NYC - Lower East Side 
p54
(S'https://www.tripadvisor.com/Hotel_Review-g60763-d3236642-Reviews-Holiday_Inn_NYC_Lower_East_Side-New_York_City_New_York.html'
S'4.0 of 5 bubbles'
tp55
sVONE UN New York 
p56
(S'https://www.tripadvisor.com/Hotel_Review-g60763-d209382-Reviews-ONE_UN_New_York-New_York_City_New_York.html'
S'4.5 of 5 bubbles'
tp57
sVMorningside Inn 
p58
(S'https://www.tripadvisor.com/Hotel_Review-g60763-d249710-Reviews-Morningside_Inn-New_York_City_New_York.html'
S'3.0 of 5 bubbles'
tp59
sVSIXTY SoHo 
p60
(S'https://www.tripadvisor.com/Hotel_Review-g60763-d93398-Reviews-SIXTY_SoHo-New_York_City_New_York.html'
S'4.5 of 5 bubbles'
tp61
sVElk Hotel 
p62
(S'https://www.tripadvisor.com/Hotel_Review-g60763-d1990870-Reviews-Elk_Hotel-New_York_City_New_York.html'
S'2.5 of 5 bubbles'
tp63
sVRiff Chelsea 
p64
(S'https://www.tripadvisor.com/Hotel_Review-g60763-d208888-Reviews-Riff_Chelsea-New_York_City_New_York.html'
S'3.0 of 5 bubbles'
tp65
sVWarwick New York 
p66
(S'https://www.tripadvisor.com/Hotel_Review-g60763-d112064-Reviews-Warwick_New_York-New_York_City_New_York.html'
S'4.5 of 5 bubbles'
tp67
sVWorld Hotel 
p68
(S'https://www.tripadvisor.com/Hotel_Review-g60763-d267183-Reviews-World_Hotel-New_York_City_New_York.html'
S'1.5 of 5 bubbles'
tp69
sVHudson River Hotel 
p70
(S'https://www.tripadvisor.com/Hotel_Review-g60763-d596200-Reviews-Hudson_River_Hotel-New_York_City_New_York.html'
S'3.5 of 5 bubbles'
tp71
sVThe Dorset 
p72
(S'https://www.tripadvisor.com/Hotel_Review-g60763-d93572-Reviews-The_Dorset-New_York_City_New_York.html'
S'2.0 of 5 bubbles'
tp73
sVHoliday Inn Express Manhattan Times Square South 
p74
(S'https://www.tripadvisor.com/Hotel_Review-g60763-d3529145-Reviews-Holiday_Inn_Express_Manhattan_Times_Square_South-New_York_City_New_York.html'
S'4.5 of 5 bubbles'
tp75
sVWall Street District Hotel 
p76
(S'https://www.tripadvisor.com/Hotel_Review-g60763-d1177257-Reviews-Wall_Street_District_Hotel-New_York_City_New_York.html'
S'2.0 of 5 bubbles'
tp77
sVManhattan West Hotel 
p78
(S'https://www.tripadvisor.com/Hotel_Review-g60763-d6701149-Reviews-Manhattan_West_Hotel-New_York_City_New_York.html'
S'3.0 of 5 bubbles'
tp79
sVNobleDEN Hotel 
p80
(S'https://www.tripadvisor.com/Hotel_Review-g60763-d7363884-Reviews-NobleDEN_Hotel-New_York_City_New_York.html'
S'4.5 of 5 bubbles'
tp81
sVThe Tuscany - A St Giles Signature Hotel 
p82
(S'https://www.tripadvisor.com/Hotel_Review-g60763-d93431-Reviews-The_Tuscany_A_St_Giles_Signature_Hotel-New_York_City_New_York.html'
S'4.5 of 5 bubbles'
tp83
sVCassa Hotel Times Square 
p84
(S'https://www.tripadvisor.com/Hotel_Review-g60763-d7148761-Reviews-Cassa_Hotel_Times_Square-New_York_City_New_York.html'
S'4.5 of 5 bubbles'
tp85
sVRoyal Park Hotel 
p86
(S'https://www.tripadvisor.com/Hotel_Review-g60763-d1155229-Reviews-Royal_Park_Hotel-New_York_City_New_York.html'
S'3.0 of 5 bubbles'
tp87
sVMount Royal Hotel & Hostel 
p88
(S'https://www.tripadvisor.com/Hotel_Review-g60763-d557499-Reviews-Mount_Royal_Hotel_Hostel-New_York_City_New_York.html'
S'2.0 of 5 bubbles'
tp89
sVPark Savoy 
p90
(S'https://www.tripadvisor.com/Hotel_Review-g60763-d93357-Reviews-Park_Savoy-New_York_City_New_York.html'
S'3.0 of 5 bubbles'
tp91
sVHotel Cliff 
p92
(S'https://www.tripadvisor.com/Hotel_Review-g60763-d8530894-Reviews-Hotel_Cliff-New_York_City_New_York.html'
S'2.5 of 5 bubbles'
tp93
sVHotel Riverside Studios 
p94
(S'https://www.tripadvisor.com/Hotel_Review-g60763-d224229-Reviews-Hotel_Riverside_Studios-New_York_City_New_York.html'
S'2.0 of 5 bubbles'
tp95
sVArlo NoMad 
p96
(S'https://www.tripadvisor.com/Hotel_Review-g60763-d10541730-Reviews-Arlo_NoMad-New_York_City_New_York.html'
S'4.5 of 5 bubbles'
tp97
sVOakwood at 777 6th Avenue 
p98
(S'https://www.tripadvisor.com/Hotel_Review-g60763-d268217-Reviews-Oakwood_at_777_6th_Avenue-New_York_City_New_York.html'
S'4.5 of 5 bubbles'
tp99
sVThe Redbury New York 
p100
(S'https://www.tripadvisor.com/Hotel_Review-g60763-d125274-Reviews-The_Redbury_New_York-New_York_City_New_York.html'
S'4.0 of 5 bubbles'
tp101
sVNYLO New York City 
p102
(S'https://www.tripadvisor.com/Hotel_Review-g60763-d99288-Reviews-NYLO_New_York_City-New_York_City_New_York.html'
S'4.5 of 5 bubbles'
tp103
sVSenton Hotel 
p104
(S'https://www.tripadvisor.com/Hotel_Review-g60763-d284904-Reviews-Senton_Hotel-New_York_City_New_York.html'
S'1.5 of 5 bubbles'
tp105
sVOxbridge Midtown East Apartments 
p106
(S'https://www.tripadvisor.com/Hotel_Review-g60763-d1199530-Reviews-Oxbridge_Midtown_East_Apartments-New_York_City_New_York.html'
S'3.5 of 5 bubbles'
tp107
sVFlushing Motel 
p108
(S'https://www.tripadvisor.com/Hotel_Review-g60763-d6217892-Reviews-Flushing_Motel-New_York_City_New_York.html'
S'3.0 of 5 bubbles'
tp109
sVSignature Properties 
p110
(S'https://www.tripadvisor.com/Hotel_Review-g60763-d1547031-Reviews-Signature_Properties-New_York_City_New_York.html'
S'2.0 of 5 bubbles'
tp111
sVSt. Marks Hotel 
p112
(S'https://www.tripadvisor.com/Hotel_Review-g60763-d290987-Reviews-St_Marks_Hotel-New_York_City_New_York.html'
S'3.5 of 5 bubbles'
tp113
sVHyatt Union Square New York 
p114
(S'https://www.tripadvisor.com/Hotel_Review-g60763-d3533197-Reviews-Hyatt_Union_Square_New_York-New_York_City_New_York.html'
S'4.5 of 5 bubbles'
tp115
sVLoews Regency New York Hotel 
p116
(S'https://www.tripadvisor.com/Hotel_Review-g60763-d93607-Reviews-Loews_Regency_New_York_Hotel-New_York_City_New_York.html'
S'4.5 of 5 bubbles'
tp117
sVKitano New York 
p118
(S'https://www.tripadvisor.com/Hotel_Review-g60763-d93337-Reviews-Kitano_New_York-New_York_City_New_York.html'
S'4.5 of 5 bubbles'
tp119
sVGreenwich Hotel 
p120
(S'https://www.tripadvisor.com/Hotel_Review-g60763-d1028569-Reviews-Greenwich_Hotel-New_York_City_New_York.html'
S'4.5 of 5 bubbles'
tp121
sVThe Lucerne Hotel 
p122
(S'https://www.tripadvisor.com/Hotel_Review-g60763-d99281-Reviews-The_Lucerne_Hotel-New_York_City_New_York.html'
S'4.5 of 5 bubbles'
tp123
sVBaccarat Hotel & Residences New York 
p124
(S'https://www.tripadvisor.com/Hotel_Review-g60763-d7314002-Reviews-Baccarat_Hotel_Residences_New_York-New_York_City_New_York.html'
S'4.5 of 5 bubbles'
tp125
sVBeekman Apartments 
p126
(S'https://www.tripadvisor.com/Hotel_Review-g60763-d651216-Reviews-Beekman_Apartments-New_York_City_New_York.html'
S'3.0 of 5 bubbles'
tp127
sVEnvoy Club Suites 
p128
(S'https://www.tripadvisor.com/Hotel_Review-g60763-d256738-Reviews-Envoy_Club_Suites-New_York_City_New_York.html'
S'3.5 of 5 bubbles'
tp129
sVChelsea Inn - 17th Street 
p130
(S'https://www.tripadvisor.com/Hotel_Review-g60763-d80081-Reviews-Chelsea_Inn_17th_Street-New_York_City_New_York.html'
S'3.0 of 5 bubbles'
tp131
sVExecutive Hotel LeSoleil 
p132
(S'https://www.tripadvisor.com/Hotel_Review-g60763-d7816364-Reviews-Executive_Hotel_LeSoleil-New_York_City_New_York.html'
S'4.5 of 5 bubbles'
tp133
sVWest 57th Street by Hilton Club 
p134
(S'https://www.tripadvisor.com/Hotel_Review-g60763-d1308397-Reviews-West_57th_Street_by_Hilton_Club-New_York_City_New_York.html'
S'4.5 of 5 bubbles'
tp135
sVFairfield Inn & Suites New York Midtown Manhattan/Penn Station 
p136
(S'https://www.tripadvisor.com/Hotel_Review-g60763-d3613090-Reviews-Fairfield_Inn_Suites_New_York_Midtown_Manhattan_Penn_Station-New_York_City_New_York.html'
S'4.5 of 5 bubbles'
tp137
sVHoliday Inn Express New York City 
p138
(S'https://www.tripadvisor.com/Hotel_Review-g60763-d584986-Reviews-Holiday_Inn_Express_New_York_City-New_York_City_New_York.html'
S'4.0 of 5 bubbles'
tp139
sVHotel Mimosa 
p140
(S'https://www.tripadvisor.com/Hotel_Review-g60763-d1448670-Reviews-Hotel_Mimosa-New_York_City_New_York.html'
S'3.0 of 5 bubbles'
tp141
sVThe High Line Hotel 
p142
(S'https://www.tripadvisor.com/Hotel_Review-g60763-d4283443-Reviews-The_High_Line_Hotel-New_York_City_New_York.html'
S'4.5 of 5 bubbles'
tp143
sVDays Inn Hotel New York City-Broadway 
p144
(S'https://www.tripadvisor.com/Hotel_Review-g60763-d142114-Reviews-Days_Inn_Hotel_New_York_City_Broadway-New_York_City_New_York.html'
S'3.0 of 5 bubbles'
tp145
sVThe Roxy Hotel Tribeca 
p146
(S'https://www.tripadvisor.com/Hotel_Review-g60763-d208455-Reviews-The_Roxy_Hotel_Tribeca-New_York_City_New_York.html'
S'4.5 of 5 bubbles'
tp147
sVParamount Hotel Times Square New York 
p148
(S'https://www.tripadvisor.com/Hotel_Review-g60763-d93517-Reviews-Paramount_Hotel_Times_Square_New_York-New_York_City_New_York.html'
S'3.5 of 5 bubbles'
tp149
sVMarrakech Hotel 
p150
(S'https://www.tripadvisor.com/Hotel_Review-g60763-d113343-Reviews-Marrakech_Hotel-New_York_City_New_York.html'
S'3.0 of 5 bubbles'
tp151
sVManhattan Broadway Hotel 
p152
(S'https://www.tripadvisor.com/Hotel_Review-g60763-d122007-Reviews-Manhattan_Broadway_Hotel-New_York_City_New_York.html'
S'2.5 of 5 bubbles'
tp153
sVChelsea Inn - 11th Avenue 
p154
(S'https://www.tripadvisor.com/Hotel_Review-g60763-d540545-Reviews-Chelsea_Inn_11th_Avenue-New_York_City_New_York.html'
S'2.0 of 5 bubbles'
tp155
sVThe Mark 
p156
(S'https://www.tripadvisor.com/Hotel_Review-g60763-d112052-Reviews-The_Mark-New_York_City_New_York.html'
S'4.5 of 5 bubbles'
tp157
s.